ccopy_reg
_reconstructor
p0
(cnav_msgs.msg._Path
Path
p1
c__builtin__
object
p2
Ntp3
Rp4
(lp5
g0
(cstd_msgs.msg._Header
Header
p6
g2
Ntp7
Rp8
(lp9
I0
ag0
(crospy.rostime
Time
p10
g2
Ntp11
Rp12
(lp13
I1554478804
aI696078062
abaS'base_link'
p14
aba(lp15
g0
(cgeometry_msgs.msg._PoseStamped
PoseStamped
p16
g2
Ntp17
Rp18
(lp19
g0
(g6
g2
Ntp20
Rp21
(lp22
I0
ag0
(cgenpy.rostime
Time
p23
g2
Ntp24
Rp25
(lp26
I1554478804
aI681477069
abaS'map'
p27
abag0
(cgeometry_msgs.msg._Pose
Pose
p28
g2
Ntp29
Rp30
(lp31
g0
(cgeometry_msgs.msg._Point
Point
p32
g2
Ntp33
Rp34
(lp35
F0.9573720276467559
aF-2.4770661685466684
aF0.0
abag0
(cgeometry_msgs.msg._Quaternion
Quaternion
p36
g2
Ntp37
Rp38
(lp39
F-0.0
aF0.0
aF0.7330498086551545
aF-0.6801749613376263
abababag0
(g16
g2
Ntp40
Rp41
(lp42
g0
(g6
g2
Ntp43
Rp44
(lp45
I1
ag0
(g23
g2
Ntp46
Rp47
(lp48
I1554478829
aI417808055
abaS'map'
p49
abag0
(g28
g2
Ntp50
Rp51
(lp52
g0
(g32
g2
Ntp53
Rp54
(lp55
F0.9501596943531863
aF-2.587634542239239
aF0.0
abag0
(g36
g2
Ntp56
Rp57
(lp58
F-0.0
aF0.0
aF0.7357894734496183
aF-0.6772103445464588
abababag0
(g16
g2
Ntp59
Rp60
(lp61
g0
(g6
g2
Ntp62
Rp63
(lp64
I2
ag0
(g23
g2
Ntp65
Rp66
(lp67
I1554478830
aI119362115
abaS'map'
p68
abag0
(g28
g2
Ntp69
Rp70
(lp71
g0
(g32
g2
Ntp72
Rp73
(lp74
F0.9331448779611438
aF-2.686804561053057
aF0.0
abag0
(g36
g2
Ntp75
Rp76
(lp77
F-0.0
aF0.0
aF0.7373734908061812
aF-0.6754852589481924
abababag0
(g16
g2
Ntp78
Rp79
(lp80
g0
(g6
g2
Ntp81
Rp82
(lp83
I3
ag0
(g23
g2
Ntp84
Rp85
(lp86
I1554478830
aI780683994
abaS'map'
p87
abag0
(g28
g2
Ntp88
Rp89
(lp90
g0
(g32
g2
Ntp91
Rp92
(lp93
F0.9254513789168393
aF-2.7886431571920087
aF0.0
abag0
(g36
g2
Ntp94
Rp95
(lp96
F-0.0
aF0.0
aF0.7478541775613538
aF-0.6638630348980362
abababag0
(g16
g2
Ntp97
Rp98
(lp99
g0
(g6
g2
Ntp100
Rp101
(lp102
I4
ag0
(g23
g2
Ntp103
Rp104
(lp105
I1554478831
aI449486970
abaS'map'
p106
abag0
(g28
g2
Ntp107
Rp108
(lp109
g0
(g32
g2
Ntp110
Rp111
(lp112
F0.9099660525745524
aF-2.8874429377739417
aF0.0
abag0
(g36
g2
Ntp113
Rp114
(lp115
F-0.0
aF0.0
aF0.7342135614838632
aF-0.6789185857915376
abababag0
(g16
g2
Ntp116
Rp117
(lp118
g0
(g6
g2
Ntp119
Rp120
(lp121
I5
ag0
(g23
g2
Ntp122
Rp123
(lp124
I1554478832
aI117091894
abaS'map'
p125
abag0
(g28
g2
Ntp126
Rp127
(lp128
g0
(g32
g2
Ntp129
Rp130
(lp131
F0.8976604813942712
aF-2.989357819329457
aF0.0
abag0
(g36
g2
Ntp132
Rp133
(lp134
F-0.0
aF0.0
aF0.7304552098658036
aF-0.6829606038271203
abababag0
(g16
g2
Ntp135
Rp136
(lp137
g0
(g6
g2
Ntp138
Rp139
(lp140
I6
ag0
(g23
g2
Ntp141
Rp142
(lp143
I1554478832
aI616431951
abaS'map'
p144
abag0
(g28
g2
Ntp145
Rp146
(lp147
g0
(g32
g2
Ntp148
Rp149
(lp150
F0.8941374806056376
aF-3.0925427785319686
aF0.0
abag0
(g36
g2
Ntp151
Rp152
(lp153
F-0.0
aF0.0
aF0.7351651018885368
aF-0.6778880976718925
abababag0
(g16
g2
Ntp154
Rp155
(lp156
g0
(g6
g2
Ntp157
Rp158
(lp159
I7
ag0
(g23
g2
Ntp160
Rp161
(lp162
I1554478833
aI250642061
abaS'map'
p163
abag0
(g28
g2
Ntp164
Rp165
(lp166
g0
(g32
g2
Ntp167
Rp168
(lp169
F0.8837019814110747
aF-3.2004663619160083
aF0.0
abag0
(g36
g2
Ntp170
Rp171
(lp172
F-0.0
aF0.0
aF0.7373237495368202
aF-0.6755395535192328
abababag0
(g16
g2
Ntp173
Rp174
(lp175
g0
(g6
g2
Ntp176
Rp177
(lp178
I8
ag0
(g23
g2
Ntp179
Rp180
(lp181
I1554478833
aI880059957
abaS'map'
p182
abag0
(g28
g2
Ntp183
Rp184
(lp185
g0
(g32
g2
Ntp186
Rp187
(lp188
F0.8708267005769548
aF-3.3022414866782905
aF0.0
abag0
(g36
g2
Ntp189
Rp190
(lp191
F-0.0
aF0.0
aF0.7294024878743356
aF-0.6840847978743058
abababag0
(g16
g2
Ntp192
Rp193
(lp194
g0
(g6
g2
Ntp195
Rp196
(lp197
I9
ag0
(g23
g2
Ntp198
Rp199
(lp200
I1554478834
aI483443975
abaS'map'
p201
abag0
(g28
g2
Ntp202
Rp203
(lp204
g0
(g32
g2
Ntp205
Rp206
(lp207
F0.8655570651900413
aF-3.4082138602568754
aF0.0
abag0
(g36
g2
Ntp208
Rp209
(lp210
F-0.0
aF0.0
aF0.7315447468026796
aF-0.681793431638501
abababag0
(g16
g2
Ntp211
Rp212
(lp213
g0
(g6
g2
Ntp214
Rp215
(lp216
I10
ag0
(g23
g2
Ntp217
Rp218
(lp219
I1554478835
aI349468946
abaS'map'
p220
abag0
(g28
g2
Ntp221
Rp222
(lp223
g0
(g32
g2
Ntp224
Rp225
(lp226
F0.8595604246110805
aF-3.5094821236075044
aF0.0
abag0
(g36
g2
Ntp227
Rp228
(lp229
F-0.0
aF0.0
aF0.741676744587741
aF-0.6707574871275986
abababag0
(g16
g2
Ntp230
Rp231
(lp232
g0
(g6
g2
Ntp233
Rp234
(lp235
I11
ag0
(g23
g2
Ntp236
Rp237
(lp238
I1554478836
aI51217079
abaS'map'
p239
abag0
(g28
g2
Ntp240
Rp241
(lp242
g0
(g32
g2
Ntp243
Rp244
(lp245
F0.8512120758980573
aF-3.609281528310114
aF0.0
abag0
(g36
g2
Ntp246
Rp247
(lp248
F-0.0
aF0.0
aF0.7411760417058203
aF-0.6713107143501377
abababag0
(g16
g2
Ntp249
Rp250
(lp251
g0
(g6
g2
Ntp252
Rp253
(lp254
I12
ag0
(g23
g2
Ntp255
Rp256
(lp257
I1554478836
aI683581113
abaS'map'
p258
abag0
(g28
g2
Ntp259
Rp260
(lp261
g0
(g32
g2
Ntp262
Rp263
(lp264
F0.8385661400489762
aF-3.71356565916979
aF0.0
abag0
(g36
g2
Ntp265
Rp266
(lp267
F-0.0
aF0.0
aF0.7469289254648871
aF-0.6649038880198169
abababag0
(g16
g2
Ntp268
Rp269
(lp270
g0
(g6
g2
Ntp271
Rp272
(lp273
I13
ag0
(g23
g2
Ntp274
Rp275
(lp276
I1554478837
aI280999898
abaS'map'
p277
abag0
(g28
g2
Ntp278
Rp279
(lp280
g0
(g32
g2
Ntp281
Rp282
(lp283
F0.8276603930827285
aF-3.8147049980769303
aF0.0
abag0
(g36
g2
Ntp284
Rp285
(lp286
F-0.0
aF0.0
aF0.7501679438425941
aF-0.6612473486003362
abababag0
(g16
g2
Ntp287
Rp288
(lp289
g0
(g6
g2
Ntp290
Rp291
(lp292
I14
ag0
(g23
g2
Ntp293
Rp294
(lp295
I1554478837
aI915961980
abaS'map'
p296
abag0
(g28
g2
Ntp297
Rp298
(lp299
g0
(g32
g2
Ntp300
Rp301
(lp302
F0.8148271254113841
aF-3.9194991626863116
aF0.0
abag0
(g36
g2
Ntp303
Rp304
(lp305
F-0.0
aF0.0
aF0.7478477311117303
aF-0.6638702968735964
abababag0
(g16
g2
Ntp306
Rp307
(lp308
g0
(g6
g2
Ntp309
Rp310
(lp311
I15
ag0
(g23
g2
Ntp312
Rp313
(lp314
I1554478838
aI581007957
abaS'map'
p315
abag0
(g28
g2
Ntp316
Rp317
(lp318
g0
(g32
g2
Ntp319
Rp320
(lp321
F0.8026604364479398
aF-4.019052771236355
aF0.0
abag0
(g36
g2
Ntp322
Rp323
(lp324
F-0.0
aF0.0
aF0.7446065730448915
aF-0.6675035965283952
abababag0
(g16
g2
Ntp325
Rp326
(lp327
g0
(g6
g2
Ntp328
Rp329
(lp330
I16
ag0
(g23
g2
Ntp331
Rp332
(lp333
I1554478839
aI180823087
abaS'map'
p334
abag0
(g28
g2
Ntp335
Rp336
(lp337
g0
(g32
g2
Ntp338
Rp339
(lp340
F0.7946434082731478
aF-4.123690217103092
aF0.0
abag0
(g36
g2
Ntp341
Rp342
(lp343
F-0.0
aF0.0
aF0.7567066309826004
aF-0.6537545981688868
abababag0
(g16
g2
Ntp344
Rp345
(lp346
g0
(g6
g2
Ntp347
Rp348
(lp349
I17
ag0
(g23
g2
Ntp350
Rp351
(lp352
I1554478840
aI49067020
abaS'map'
p353
abag0
(g28
g2
Ntp354
Rp355
(lp356
g0
(g32
g2
Ntp357
Rp358
(lp359
F0.7798711162085316
aF-4.225680224354211
aF0.0
abag0
(g36
g2
Ntp360
Rp361
(lp362
F-0.0
aF0.0
aF0.7508205302248085
aF-0.6605062690035102
abababag0
(g16
g2
Ntp363
Rp364
(lp365
g0
(g6
g2
Ntp366
Rp367
(lp368
I18
ag0
(g23
g2
Ntp369
Rp370
(lp371
I1554478840
aI880743026
abaS'map'
p372
abag0
(g28
g2
Ntp373
Rp374
(lp375
g0
(g32
g2
Ntp376
Rp377
(lp378
F0.7699240445120487
aF-4.326373055975486
aF0.0
abag0
(g36
g2
Ntp379
Rp380
(lp381
F-0.0
aF0.0
aF0.7646994387193251
aF-0.6443871262078016
abababag0
(g16
g2
Ntp382
Rp383
(lp384
g0
(g6
g2
Ntp385
Rp386
(lp387
I19
ag0
(g23
g2
Ntp388
Rp389
(lp390
I1554478841
aI751468896
abaS'map'
p391
abag0
(g28
g2
Ntp392
Rp393
(lp394
g0
(g32
g2
Ntp395
Rp396
(lp397
F0.7542688015754224
aF-4.429425921761334
aF0.0
abag0
(g36
g2
Ntp398
Rp399
(lp400
F-0.0
aF0.0
aF0.7877494396840669
aF-0.6159957956653914
abababag0
(g16
g2
Ntp401
Rp402
(lp403
g0
(g6
g2
Ntp404
Rp405
(lp406
I20
ag0
(g23
g2
Ntp407
Rp408
(lp409
I1554478842
aI180685997
abaS'map'
p410
abag0
(g28
g2
Ntp411
Rp412
(lp413
g0
(g32
g2
Ntp414
Rp415
(lp416
F0.7544344350686817
aF-4.533226180284193
aF0.0
abag0
(g36
g2
Ntp417
Rp418
(lp419
F-0.0
aF0.0
aF0.8059700569910407
aF-0.5919563051728215
abababag0
(g16
g2
Ntp420
Rp421
(lp422
g0
(g6
g2
Ntp423
Rp424
(lp425
I21
ag0
(g23
g2
Ntp426
Rp427
(lp428
I1554478843
aI418689966
abaS'map'
p429
abag0
(g28
g2
Ntp430
Rp431
(lp432
g0
(g32
g2
Ntp433
Rp434
(lp435
F0.7072159708173862
aF-4.623701879775864
aF0.0
abag0
(g36
g2
Ntp436
Rp437
(lp438
F-0.0
aF0.0
aF0.8492573986569462
aF-0.5279790439273484
abababag0
(g16
g2
Ntp439
Rp440
(lp441
g0
(g6
g2
Ntp442
Rp443
(lp444
I22
ag0
(g23
g2
Ntp445
Rp446
(lp447
I1554478844
aI181159973
abaS'map'
p448
abag0
(g28
g2
Ntp449
Rp450
(lp451
g0
(g32
g2
Ntp452
Rp453
(lp454
F0.6609007739457676
aF-4.7326005043096355
aF0.0
abag0
(g36
g2
Ntp455
Rp456
(lp457
F-0.0
aF0.0
aF0.8600716110195677
aF-0.5101733273292572
abababag0
(g16
g2
Ntp458
Rp459
(lp460
g0
(g6
g2
Ntp461
Rp462
(lp463
I23
ag0
(g23
g2
Ntp464
Rp465
(lp466
I1554478844
aI915193080
abaS'map'
p467
abag0
(g28
g2
Ntp468
Rp469
(lp470
g0
(g32
g2
Ntp471
Rp472
(lp473
F0.6021155062552649
aF-4.81373941048714
aF0.0
abag0
(g36
g2
Ntp474
Rp475
(lp476
F-0.0
aF0.0
aF0.8697780484964369
aF-0.4934431541259133
abababag0
(g16
g2
Ntp477
Rp478
(lp479
g0
(g6
g2
Ntp480
Rp481
(lp482
I24
ag0
(g23
g2
Ntp483
Rp484
(lp485
I1554478845
aI517671108
abaS'map'
p486
abag0
(g28
g2
Ntp487
Rp488
(lp489
g0
(g32
g2
Ntp490
Rp491
(lp492
F0.5575453606011008
aF-4.908142123621612
aF0.0
abag0
(g36
g2
Ntp493
Rp494
(lp495
F-0.0
aF0.0
aF0.8971150268402511
aF-0.44179704460013713
abababag0
(g16
g2
Ntp496
Rp497
(lp498
g0
(g6
g2
Ntp499
Rp500
(lp501
I25
ag0
(g23
g2
Ntp502
Rp503
(lp504
I1554478846
aI152781963
abaS'map'
p505
abag0
(g28
g2
Ntp506
Rp507
(lp508
g0
(g32
g2
Ntp509
Rp510
(lp511
F0.5037621787063009
aF-5.001221725443473
aF0.0
abag0
(g36
g2
Ntp512
Rp513
(lp514
F-0.0
aF0.0
aF0.9282882684136508
aF-0.37186138644068145
abababag0
(g16
g2
Ntp515
Rp516
(lp517
g0
(g6
g2
Ntp518
Rp519
(lp520
I26
ag0
(g23
g2
Ntp521
Rp522
(lp523
I1554478847
aI51042079
abaS'map'
p524
abag0
(g28
g2
Ntp525
Rp526
(lp527
g0
(g32
g2
Ntp528
Rp529
(lp530
F0.43754400723120734
aF-5.079114092422607
aF0.0
abag0
(g36
g2
Ntp531
Rp532
(lp533
F-0.0
aF0.0
aF0.9440019290979555
aF-0.32993993068335714
abababag0
(g16
g2
Ntp534
Rp535
(lp536
g0
(g6
g2
Ntp537
Rp538
(lp539
I27
ag0
(g23
g2
Ntp540
Rp541
(lp542
I1554478847
aI816551923
abaS'map'
p543
abag0
(g28
g2
Ntp544
Rp545
(lp546
g0
(g32
g2
Ntp547
Rp548
(lp549
F0.3531247294961142
aF-5.137726979577902
aF0.0
abag0
(g36
g2
Ntp550
Rp551
(lp552
F-0.0
aF0.0
aF0.9576982128043598
aF-0.28777444846847505
abababag0
(g16
g2
Ntp553
Rp554
(lp555
g0
(g6
g2
Ntp556
Rp557
(lp558
I28
ag0
(g23
g2
Ntp559
Rp560
(lp561
I1554478848
aI448116064
abaS'map'
p562
abag0
(g28
g2
Ntp563
Rp564
(lp565
g0
(g32
g2
Ntp566
Rp567
(lp568
F0.270241279101633
aF-5.2038173193978965
aF0.0
abag0
(g36
g2
Ntp569
Rp570
(lp571
F-0.0
aF0.0
aF0.9650005282846169
aF-0.2622479369040115
abababag0
(g16
g2
Ntp572
Rp573
(lp574
g0
(g6
g2
Ntp575
Rp576
(lp577
I29
ag0
(g23
g2
Ntp578
Rp579
(lp580
I1554478848
aI917278051
abaS'map'
p581
abag0
(g28
g2
Ntp582
Rp583
(lp584
g0
(g32
g2
Ntp585
Rp586
(lp587
F0.20448435015924604
aF-5.284880803577214
aF0.0
abag0
(g36
g2
Ntp588
Rp589
(lp590
F-0.0
aF0.0
aF0.9740918049675267
aF-0.22615294712894168
abababag0
(g16
g2
Ntp591
Rp592
(lp593
g0
(g6
g2
Ntp594
Rp595
(lp596
I30
ag0
(g23
g2
Ntp597
Rp598
(lp599
I1554478849
aI580517053
abaS'map'
p600
abag0
(g28
g2
Ntp601
Rp602
(lp603
g0
(g32
g2
Ntp604
Rp605
(lp606
F0.10575291835917365
aF-5.310724819744666
aF0.0
abag0
(g36
g2
Ntp607
Rp608
(lp609
F-0.0
aF0.0
aF0.9801118205944735
aF-0.1984460106199834
abababag0
(g16
g2
Ntp610
Rp611
(lp612
g0
(g6
g2
Ntp613
Rp614
(lp615
I31
ag0
(g23
g2
Ntp616
Rp617
(lp618
I1554478850
aI180461883
abaS'map'
p619
abag0
(g28
g2
Ntp620
Rp621
(lp622
g0
(g32
g2
Ntp623
Rp624
(lp625
F0.003210873570473524
aF-5.32465136770157
aF0.0
abag0
(g36
g2
Ntp626
Rp627
(lp628
F-0.0
aF0.0
aF0.9868876689481815
aF-0.1614085774611266
abababag0
(g16
g2
Ntp629
Rp630
(lp631
g0
(g6
g2
Ntp632
Rp633
(lp634
I32
ag0
(g23
g2
Ntp635
Rp636
(lp637
I1554478850
aI749514102
abaS'map'
p638
abag0
(g28
g2
Ntp639
Rp640
(lp641
g0
(g32
g2
Ntp642
Rp643
(lp644
F-0.08671253907369614
aF-5.368893162441159
aF0.0
abag0
(g36
g2
Ntp645
Rp646
(lp647
F-0.0
aF0.0
aF0.9945918842883194
aF-0.10386040490875448
abababag0
(g16
g2
Ntp648
Rp649
(lp650
g0
(g6
g2
Ntp651
Rp652
(lp653
I33
ag0
(g23
g2
Ntp654
Rp655
(lp656
I1554478851
aI319114923
abaS'map'
p657
abag0
(g28
g2
Ntp658
Rp659
(lp660
g0
(g32
g2
Ntp661
Rp662
(lp663
F-0.1869628598653579
aF-5.380289323542928
aF0.0
abag0
(g36
g2
Ntp664
Rp665
(lp666
F-0.0
aF0.0
aF0.9994214755255172
aF-0.03401050217797354
abababag0
(g16
g2
Ntp667
Rp668
(lp669
g0
(g6
g2
Ntp670
Rp671
(lp672
I34
ag0
(g23
g2
Ntp673
Rp674
(lp675
I1554478851
aI783878087
abaS'map'
p676
abag0
(g28
g2
Ntp677
Rp678
(lp679
g0
(g32
g2
Ntp680
Rp681
(lp682
F-0.28577049478233435
aF-5.413774465248517
aF0.0
abag0
(g36
g2
Ntp683
Rp684
(lp685
F0.0
aF0.0
aF0.9995795776543115
aF0.02899427420075002
abababag0
(g16
g2
Ntp686
Rp687
(lp688
g0
(g6
g2
Ntp689
Rp690
(lp691
I35
ag0
(g23
g2
Ntp692
Rp693
(lp694
I1554478852
aI316787958
abaS'map'
p695
abag0
(g28
g2
Ntp696
Rp697
(lp698
g0
(g32
g2
Ntp699
Rp700
(lp701
F-0.38595905207646575
aF-5.378076719570334
aF0.0
abag0
(g36
g2
Ntp702
Rp703
(lp704
F0.0
aF0.0
aF0.9974981073616609
aF0.07069318078785537
abababag0
(g16
g2
Ntp705
Rp706
(lp707
g0
(g6
g2
Ntp708
Rp709
(lp710
I36
ag0
(g23
g2
Ntp711
Rp712
(lp713
I1554478852
aI849004030
abaS'map'
p714
abag0
(g28
g2
Ntp715
Rp716
(lp717
g0
(g32
g2
Ntp718
Rp719
(lp720
F-0.492068887605653
aF-5.381442302206962
aF0.0
abag0
(g36
g2
Ntp721
Rp722
(lp723
F0.0
aF0.0
aF0.9942185339837522
aF0.10737554043262666
abababag0
(g16
g2
Ntp724
Rp725
(lp726
g0
(g6
g2
Ntp727
Rp728
(lp729
I37
ag0
(g23
g2
Ntp730
Rp731
(lp732
I1554478854
aI417573928
abaS'map'
p733
abag0
(g28
g2
Ntp734
Rp735
(lp736
g0
(g32
g2
Ntp737
Rp738
(lp739
F-0.5932648833923733
aF-5.380881538382221
aF0.0
abag0
(g36
g2
Ntp740
Rp741
(lp742
F0.0
aF0.0
aF0.9874152013122268
aF0.1581493604714688
abababag0
(g16
g2
Ntp743
Rp744
(lp745
g0
(g6
g2
Ntp746
Rp747
(lp748
I38
ag0
(g23
g2
Ntp749
Rp750
(lp751
I1554478855
aI17640113
abaS'map'
p752
abag0
(g28
g2
Ntp753
Rp754
(lp755
g0
(g32
g2
Ntp756
Rp757
(lp758
F-0.6926178908930826
aF-5.356266938554178
aF0.0
abag0
(g36
g2
Ntp759
Rp760
(lp761
F0.0
aF0.0
aF0.9771503312011365
aF0.2125493595226983
abababag0
(g16
g2
Ntp762
Rp763
(lp764
g0
(g6
g2
Ntp765
Rp766
(lp767
I39
ag0
(g23
g2
Ntp768
Rp769
(lp770
I1554478855
aI549376964
abaS'map'
p771
abag0
(g28
g2
Ntp772
Rp773
(lp774
g0
(g32
g2
Ntp775
Rp776
(lp777
F-0.7867994266611636
aF-5.310796552565242
aF0.0
abag0
(g36
g2
Ntp778
Rp779
(lp780
F0.0
aF0.0
aF0.963677444016188
aF0.2670688748140202
abababag0
(g16
g2
Ntp781
Rp782
(lp783
g0
(g6
g2
Ntp784
Rp785
(lp786
I40
ag0
(g23
g2
Ntp787
Rp788
(lp789
I1554478856
aI79524993
abaS'map'
p790
abag0
(g28
g2
Ntp791
Rp792
(lp793
g0
(g32
g2
Ntp794
Rp795
(lp796
F-0.8811750944035418
aF-5.27242750866895
aF0.0
abag0
(g36
g2
Ntp797
Rp798
(lp799
F0.0
aF0.0
aF0.9580479488530623
aF0.28660796865830507
abababag0
(g16
g2
Ntp800
Rp801
(lp802
g0
(g6
g2
Ntp803
Rp804
(lp805
I41
ag0
(g23
g2
Ntp806
Rp807
(lp808
I1554478856
aI619596958
abaS'map'
p809
abag0
(g28
g2
Ntp810
Rp811
(lp812
g0
(g32
g2
Ntp813
Rp814
(lp815
F-0.9742753403177395
aF-5.227394272086811
aF0.0
abag0
(g36
g2
Ntp816
Rp817
(lp818
F0.0
aF0.0
aF0.9478285346107769
aF0.3187805969277105
abababag0
(g16
g2
Ntp819
Rp820
(lp821
g0
(g6
g2
Ntp822
Rp823
(lp824
I42
ag0
(g23
g2
Ntp825
Rp826
(lp827
I1554478857
aI150834083
abaS'map'
p828
abag0
(g28
g2
Ntp829
Rp830
(lp831
g0
(g32
g2
Ntp832
Rp833
(lp834
F-1.0496084499264127
aF-5.1409221793830575
aF0.0
abag0
(g36
g2
Ntp835
Rp836
(lp837
F0.0
aF0.0
aF0.9291129778304539
aF0.3697959902798115
abababag0
(g16
g2
Ntp838
Rp839
(lp840
g0
(g6
g2
Ntp841
Rp842
(lp843
I43
ag0
(g23
g2
Ntp844
Rp845
(lp846
I1554478857
aI883107900
abaS'map'
p847
abag0
(g28
g2
Ntp848
Rp849
(lp850
g0
(g32
g2
Ntp851
Rp852
(lp853
F-1.1368282667765903
aF-5.0792002681430946
aF0.0
abag0
(g36
g2
Ntp854
Rp855
(lp856
F0.0
aF0.0
aF0.8917847138098064
aF0.452459969737834
abababag0
(g16
g2
Ntp857
Rp858
(lp859
g0
(g6
g2
Ntp860
Rp861
(lp862
I44
ag0
(g23
g2
Ntp863
Rp864
(lp865
I1554478858
aI418751001
abaS'map'
p866
abag0
(g28
g2
Ntp867
Rp868
(lp869
g0
(g32
g2
Ntp870
Rp871
(lp872
F-1.1856885170003186
aF-4.9907027645560875
aF0.0
abag0
(g36
g2
Ntp873
Rp874
(lp875
F0.0
aF0.0
aF0.8619741775105816
aF0.5069521844365171
abababag0
(g16
g2
Ntp876
Rp877
(lp878
g0
(g6
g2
Ntp879
Rp880
(lp881
I45
ag0
(g23
g2
Ntp882
Rp883
(lp884
I1554478859
aI218533992
abaS'map'
p885
abag0
(g28
g2
Ntp886
Rp887
(lp888
g0
(g32
g2
Ntp889
Rp890
(lp891
F-1.2546559393200747
aF-4.9151621133229835
aF0.0
abag0
(g36
g2
Ntp892
Rp893
(lp894
F0.0
aF0.0
aF0.8564547200605522
aF0.5162221541991405
abababag0
(g16
g2
Ntp895
Rp896
(lp897
g0
(g6
g2
Ntp898
Rp899
(lp900
I46
ag0
(g23
g2
Ntp901
Rp902
(lp903
I1554478859
aI749891996
abaS'map'
p904
abag0
(g28
g2
Ntp905
Rp906
(lp907
g0
(g32
g2
Ntp908
Rp909
(lp910
F-1.2903023185808329
aF-4.821246251641059
aF0.0
abag0
(g36
g2
Ntp911
Rp912
(lp913
F0.0
aF0.0
aF0.8528524874379868
aF0.5221519268094666
abababag0
(g16
g2
Ntp914
Rp915
(lp916
g0
(g6
g2
Ntp917
Rp918
(lp919
I47
ag0
(g23
g2
Ntp920
Rp921
(lp922
I1554478860
aI419660091
abaS'map'
p923
abag0
(g28
g2
Ntp924
Rp925
(lp926
g0
(g32
g2
Ntp927
Rp928
(lp929
F-1.341887748332547
aF-4.7333303332278485
aF0.0
abag0
(g36
g2
Ntp930
Rp931
(lp932
F0.0
aF0.0
aF0.8504073191292654
aF0.5261248821063073
abababag0
(g16
g2
Ntp933
Rp934
(lp935
g0
(g6
g2
Ntp936
Rp937
(lp938
I48
ag0
(g23
g2
Ntp939
Rp940
(lp941
I1554478861
aI16719102
abaS'map'
p942
abag0
(g28
g2
Ntp943
Rp944
(lp945
g0
(g32
g2
Ntp946
Rp947
(lp948
F-1.3791066869994095
aF-4.625062720255217
aF0.0
abag0
(g36
g2
Ntp949
Rp950
(lp951
F0.0
aF0.0
aF0.8578619161963366
aF0.5138802708218615
abababag0
(g16
g2
Ntp952
Rp953
(lp954
g0
(g6
g2
Ntp955
Rp956
(lp957
I49
ag0
(g23
g2
Ntp958
Rp959
(lp960
I1554478861
aI684515953
abaS'map'
p961
abag0
(g28
g2
Ntp962
Rp963
(lp964
g0
(g32
g2
Ntp965
Rp966
(lp967
F-1.442067354545136
aF-4.5394769882026615
aF0.0
abag0
(g36
g2
Ntp968
Rp969
(lp970
F0.0
aF0.0
aF0.8471783214751009
aF0.5313086594651274
abababag0
(g16
g2
Ntp971
Rp972
(lp973
g0
(g6
g2
Ntp974
Rp975
(lp976
I50
ag0
(g23
g2
Ntp977
Rp978
(lp979
I1554478862
aI317291021
abaS'map'
p980
abag0
(g28
g2
Ntp981
Rp982
(lp983
g0
(g32
g2
Ntp984
Rp985
(lp986
F-1.492828752395451
aF-4.43281003562015
aF0.0
abag0
(g36
g2
Ntp987
Rp988
(lp989
F0.0
aF0.0
aF0.8142909709859566
aF0.5804569015618197
abababag0
(g16
g2
Ntp990
Rp991
(lp992
g0
(g6
g2
Ntp993
Rp994
(lp995
I51
ag0
(g23
g2
Ntp996
Rp997
(lp998
I1554478862
aI950336933
abaS'map'
p999
abag0
(g28
g2
Ntp1000
Rp1001
(lp1002
g0
(g32
g2
Ntp1003
Rp1004
(lp1005
F-1.535647289119542
aF-4.33274382162667
aF0.0
abag0
(g36
g2
Ntp1006
Rp1007
(lp1008
F0.0
aF0.0
aF0.7804910545600309
aF0.625166948703921
abababag0
(g16
g2
Ntp1009
Rp1010
(lp1011
g0
(g6
g2
Ntp1012
Rp1013
(lp1014
I52
ag0
(g23
g2
Ntp1015
Rp1016
(lp1017
I1554478863
aI750212907
abaS'map'
p1018
abag0
(g28
g2
Ntp1019
Rp1020
(lp1021
g0
(g32
g2
Ntp1022
Rp1023
(lp1024
F-1.5614982111116824
aF-4.227731593792097
aF0.0
abag0
(g36
g2
Ntp1025
Rp1026
(lp1027
F0.0
aF0.0
aF0.7628357021692861
aF0.6465923688815793
abababag0
(g16
g2
Ntp1028
Rp1029
(lp1030
g0
(g6
g2
Ntp1031
Rp1032
(lp1033
I53
ag0
(g23
g2
Ntp1034
Rp1035
(lp1036
I1554478864
aI717350959
abaS'map'
p1037
abag0
(g28
g2
Ntp1038
Rp1039
(lp1040
g0
(g32
g2
Ntp1041
Rp1042
(lp1043
F-1.5841057699421386
aF-4.129680896991724
aF0.0
abag0
(g36
g2
Ntp1044
Rp1045
(lp1046
F0.0
aF0.0
aF0.6989459884528155
aF0.7151744578952164
abababag0
(g16
g2
Ntp1047
Rp1048
(lp1049
g0
(g6
g2
Ntp1050
Rp1051
(lp1052
I54
ag0
(g23
g2
Ntp1053
Rp1054
(lp1055
I1554478865
aI850385904
abaS'map'
p1056
abag0
(g28
g2
Ntp1057
Rp1058
(lp1059
g0
(g32
g2
Ntp1060
Rp1061
(lp1062
F-1.5865377252368527
aF-4.027779129157792
aF0.0
abag0
(g36
g2
Ntp1063
Rp1064
(lp1065
F0.0
aF0.0
aF0.6790202644089558
aF0.7341195274081679
abababag0
(g16
g2
Ntp1066
Rp1067
(lp1068
g0
(g6
g2
Ntp1069
Rp1070
(lp1071
I55
ag0
(g23
g2
Ntp1072
Rp1073
(lp1074
I1554478866
aI818784952
abaS'map'
p1075
abag0
(g28
g2
Ntp1076
Rp1077
(lp1078
g0
(g32
g2
Ntp1079
Rp1080
(lp1081
F-1.5746493879568675
aF-3.9225854972775434
aF0.0
abag0
(g36
g2
Ntp1082
Rp1083
(lp1084
F0.0
aF0.0
aF0.6768003860755882
aF0.7361665826482038
abababag0
(g16
g2
Ntp1085
Rp1086
(lp1087
g0
(g6
g2
Ntp1088
Rp1089
(lp1090
I56
ag0
(g23
g2
Ntp1091
Rp1092
(lp1093
I1554478867
aI716588973
abaS'map'
p1094
abag0
(g28
g2
Ntp1095
Rp1096
(lp1097
g0
(g32
g2
Ntp1098
Rp1099
(lp1100
F-1.5676955393355991
aF-3.8217133118039404
aF0.0
abag0
(g36
g2
Ntp1101
Rp1102
(lp1103
F0.0
aF0.0
aF0.6694654399459816
aF0.7428432033194712
abababag0
(g16
g2
Ntp1104
Rp1105
(lp1106
g0
(g6
g2
Ntp1107
Rp1108
(lp1109
I57
ag0
(g23
g2
Ntp1110
Rp1111
(lp1112
I1554478868
aI549247026
abaS'map'
p1113
abag0
(g28
g2
Ntp1114
Rp1115
(lp1116
g0
(g32
g2
Ntp1117
Rp1118
(lp1119
F-1.5530620958969497
aF-3.7143399767474112
aF0.0
abag0
(g36
g2
Ntp1120
Rp1121
(lp1122
F0.0
aF0.0
aF0.6781849253959453
aF0.7348912892160963
abababag0
(g16
g2
Ntp1123
Rp1124
(lp1125
g0
(g6
g2
Ntp1126
Rp1127
(lp1128
I58
ag0
(g23
g2
Ntp1129
Rp1130
(lp1131
I1554478869
aI480892896
abaS'map'
p1132
abag0
(g28
g2
Ntp1133
Rp1134
(lp1135
g0
(g32
g2
Ntp1136
Rp1137
(lp1138
F-1.5426550445512692
aF-3.6146984841595646
aF0.0
abag0
(g36
g2
Ntp1139
Rp1140
(lp1141
F0.0
aF0.0
aF0.6908525528842506
aF0.7229956778386117
abababag0
(g16
g2
Ntp1142
Rp1143
(lp1144
g0
(g6
g2
Ntp1145
Rp1146
(lp1147
I59
ag0
(g23
g2
Ntp1148
Rp1149
(lp1150
I1554478870
aI281873941
abaS'map'
p1151
abag0
(g28
g2
Ntp1152
Rp1153
(lp1154
g0
(g32
g2
Ntp1155
Rp1156
(lp1157
F-1.5370245988383617
aF-3.511421174765042
aF0.0
abag0
(g36
g2
Ntp1158
Rp1159
(lp1160
F0.0
aF0.0
aF0.6743163336767143
aF0.7384426058515273
abababag0
(g16
g2
Ntp1161
Rp1162
(lp1163
g0
(g6
g2
Ntp1164
Rp1165
(lp1166
I60
ag0
(g23
g2
Ntp1167
Rp1168
(lp1169
I1554478871
aI81626892
abaS'map'
p1170
abag0
(g28
g2
Ntp1171
Rp1172
(lp1173
g0
(g32
g2
Ntp1174
Rp1175
(lp1176
F-1.52329130691952
aF-3.409643670230304
aF0.0
abag0
(g36
g2
Ntp1177
Rp1178
(lp1179
F0.0
aF0.0
aF0.6825241662042475
aF0.7308630258449231
abababag0
(g16
g2
Ntp1180
Rp1181
(lp1182
g0
(g6
g2
Ntp1183
Rp1184
(lp1185
I61
ag0
(g23
g2
Ntp1186
Rp1187
(lp1188
I1554478871
aI883599996
abaS'map'
p1189
abag0
(g28
g2
Ntp1190
Rp1191
(lp1192
g0
(g32
g2
Ntp1193
Rp1194
(lp1195
F-1.5122232929240849
aF-3.305523058699054
aF0.0
abag0
(g36
g2
Ntp1196
Rp1197
(lp1198
F0.0
aF0.0
aF0.6808745465416383
aF0.7324000627196303
abababag0
(g16
g2
Ntp1199
Rp1200
(lp1201
g0
(g6
g2
Ntp1202
Rp1203
(lp1204
I62
ag0
(g23
g2
Ntp1205
Rp1206
(lp1207
I1554478872
aI518013000
abaS'map'
p1208
abag0
(g28
g2
Ntp1209
Rp1210
(lp1211
g0
(g32
g2
Ntp1212
Rp1213
(lp1214
F-1.5035877552135657
aF-3.2045955553359873
aF0.0
abag0
(g36
g2
Ntp1215
Rp1216
(lp1217
F0.0
aF0.0
aF0.6784597707519381
aF0.7346375565346681
abababag0
(g16
g2
Ntp1218
Rp1219
(lp1220
g0
(g6
g2
Ntp1221
Rp1222
(lp1223
I63
ag0
(g23
g2
Ntp1224
Rp1225
(lp1226
I1554478873
aI250832080
abaS'map'
p1227
abag0
(g28
g2
Ntp1228
Rp1229
(lp1230
g0
(g32
g2
Ntp1231
Rp1232
(lp1233
F-1.4906597842394829
aF-3.095186923464123
aF0.0
abag0
(g36
g2
Ntp1234
Rp1235
(lp1236
F0.0
aF0.0
aF0.6875923128018614
aF0.726096971055373
abababag0
(g16
g2
Ntp1237
Rp1238
(lp1239
g0
(g6
g2
Ntp1240
Rp1241
(lp1242
I64
ag0
(g23
g2
Ntp1243
Rp1244
(lp1245
I1554478874
aI49273967
abaS'map'
p1246
abag0
(g28
g2
Ntp1247
Rp1248
(lp1249
g0
(g32
g2
Ntp1250
Rp1251
(lp1252
F-1.4837687308450045
aF-2.989920931803421
aF0.0
abag0
(g36
g2
Ntp1253
Rp1254
(lp1255
F0.0
aF0.0
aF0.6777491164892739
aF0.7352932306896403
abababag0
(g16
g2
Ntp1256
Rp1257
(lp1258
g0
(g6
g2
Ntp1259
Rp1260
(lp1261
I65
ag0
(g23
g2
Ntp1262
Rp1263
(lp1264
I1554478874
aI782318115
abaS'map'
p1265
abag0
(g28
g2
Ntp1266
Rp1267
(lp1268
g0
(g32
g2
Ntp1269
Rp1270
(lp1271
F-1.474432674920408
aF-2.8866138984915257
aF0.0
abag0
(g36
g2
Ntp1272
Rp1273
(lp1274
F0.0
aF0.0
aF0.6717270341960153
aF0.7407987523816608
abababag0
(g16
g2
Ntp1275
Rp1276
(lp1277
g0
(g6
g2
Ntp1278
Rp1279
(lp1280
I66
ag0
(g23
g2
Ntp1281
Rp1282
(lp1283
I1554478875
aI482177019
abaS'map'
p1284
abag0
(g28
g2
Ntp1285
Rp1286
(lp1287
g0
(g32
g2
Ntp1288
Rp1289
(lp1290
F-1.462188799064239
aF-2.785611630486223
aF0.0
abag0
(g36
g2
Ntp1291
Rp1292
(lp1293
F0.0
aF0.0
aF0.6712803877830729
aF0.7412035084764557
abababaab.