ccopy_reg
_reconstructor
p0
(cnav_msgs.msg._Path
Path
p1
c__builtin__
object
p2
Ntp3
Rp4
(lp5
g0
(cstd_msgs.msg._Header
Header
p6
g2
Ntp7
Rp8
(lp9
I0
ag0
(crospy.rostime
Time
p10
g2
Ntp11
Rp12
(lp13
I1554806208
aI366686105
abaS'base_link'
p14
aba(lp15
g0
(cgeometry_msgs.msg._PoseStamped
PoseStamped
p16
g2
Ntp17
Rp18
(lp19
g0
(g6
g2
Ntp20
Rp21
(lp22
I0
ag0
(cgenpy.rostime
Time
p23
g2
Ntp24
Rp25
(lp26
I1554806208
aI350152969
abaS'map'
p27
abag0
(cgeometry_msgs.msg._Pose
Pose
p28
g2
Ntp29
Rp30
(lp31
g0
(cgeometry_msgs.msg._Point
Point
p32
g2
Ntp33
Rp34
(lp35
F0.6765844672419454
aF2.4109865692349914
aF0.0
abag0
(cgeometry_msgs.msg._Quaternion
Quaternion
p36
g2
Ntp37
Rp38
(lp39
F0.0
aF-0.0
aF-0.7215311210547573
aF-0.6923820053622605
abababag0
(g16
g2
Ntp40
Rp41
(lp42
g0
(g6
g2
Ntp43
Rp44
(lp45
I1
ag0
(g23
g2
Ntp46
Rp47
(lp48
I1554806216
aI148936986
abaS'map'
p49
abag0
(g28
g2
Ntp50
Rp51
(lp52
g0
(g32
g2
Ntp53
Rp54
(lp55
F0.708919946102402
aF2.5136689453613377
aF0.0
abag0
(g36
g2
Ntp56
Rp57
(lp58
F0.0
aF0.0
aF0.5910390237094708
aF0.806642964670588
abababag0
(g16
g2
Ntp59
Rp60
(lp61
g0
(g6
g2
Ntp62
Rp63
(lp64
I2
ag0
(g23
g2
Ntp65
Rp66
(lp67
I1554806216
aI850857019
abaS'map'
p68
abag0
(g28
g2
Ntp69
Rp70
(lp71
g0
(g32
g2
Ntp72
Rp73
(lp74
F0.6938428346535526
aF2.623358533346732
aF0.0
abag0
(g36
g2
Ntp75
Rp76
(lp77
F0.0
aF0.0
aF0.45247347707729285
aF0.8917778605356743
abababag0
(g16
g2
Ntp78
Rp79
(lp80
g0
(g6
g2
Ntp81
Rp82
(lp83
I3
ag0
(g23
g2
Ntp84
Rp85
(lp86
I1554806217
aI217906951
abaS'map'
p87
abag0
(g28
g2
Ntp88
Rp89
(lp90
g0
(g32
g2
Ntp91
Rp92
(lp93
F0.6357308771448519
aF2.7132155565518064
aF0.0
abag0
(g36
g2
Ntp94
Rp95
(lp96
F0.0
aF0.0
aF0.44420135942271377
aF0.8959269793275638
abababag0
(g16
g2
Ntp97
Rp98
(lp99
g0
(g6
g2
Ntp100
Rp101
(lp102
I4
ag0
(g23
g2
Ntp103
Rp104
(lp105
I1554806217
aI548207044
abaS'map'
p106
abag0
(g28
g2
Ntp107
Rp108
(lp109
g0
(g32
g2
Ntp110
Rp111
(lp112
F0.5717490558155104
aF2.7985381734753996
aF0.0
abag0
(g36
g2
Ntp113
Rp114
(lp115
F0.0
aF0.0
aF0.4372989207951495
aF0.8993162146160812
abababag0
(g16
g2
Ntp116
Rp117
(lp118
g0
(g6
g2
Ntp119
Rp120
(lp121
I5
ag0
(g23
g2
Ntp122
Rp123
(lp124
I1554806217
aI850884914
abaS'map'
p125
abag0
(g28
g2
Ntp126
Rp127
(lp128
g0
(g32
g2
Ntp129
Rp130
(lp131
F0.507434523271245
aF2.877050778668953
aF0.0
abag0
(g36
g2
Ntp132
Rp133
(lp134
F0.0
aF0.0
aF0.42408239711144546
aF0.9056236086036021
abababag0
(g16
g2
Ntp135
Rp136
(lp137
g0
(g6
g2
Ntp138
Rp139
(lp140
I6
ag0
(g23
g2
Ntp141
Rp142
(lp143
I1554806218
aI148822069
abaS'map'
p144
abag0
(g28
g2
Ntp145
Rp146
(lp147
g0
(g32
g2
Ntp148
Rp149
(lp150
F0.44496282941668897
aF2.961284178486589
aF0.0
abag0
(g36
g2
Ntp151
Rp152
(lp153
F0.0
aF0.0
aF0.4110206180902761
aF0.9116260480617517
abababag0
(g16
g2
Ntp154
Rp155
(lp156
g0
(g6
g2
Ntp157
Rp158
(lp159
I7
ag0
(g23
g2
Ntp160
Rp161
(lp162
I1554806218
aI418838977
abaS'map'
p163
abag0
(g28
g2
Ntp164
Rp165
(lp166
g0
(g32
g2
Ntp167
Rp168
(lp169
F0.3810379857198393
aF3.0416856081970036
aF0.0
abag0
(g36
g2
Ntp170
Rp171
(lp172
F0.0
aF0.0
aF0.3964985520996478
aF0.9180353469136594
abababag0
(g16
g2
Ntp173
Rp174
(lp175
g0
(g6
g2
Ntp176
Rp177
(lp178
I8
ag0
(g23
g2
Ntp179
Rp180
(lp181
I1554806218
aI717545986
abaS'map'
p182
abag0
(g28
g2
Ntp183
Rp184
(lp185
g0
(g32
g2
Ntp186
Rp187
(lp188
F0.30482385567658116
aF3.124357261629714
aF0.0
abag0
(g36
g2
Ntp189
Rp190
(lp191
F0.0
aF0.0
aF0.379794143491083
aF0.9250710289323056
abababag0
(g16
g2
Ntp192
Rp193
(lp194
g0
(g6
g2
Ntp195
Rp196
(lp197
I9
ag0
(g23
g2
Ntp198
Rp199
(lp200
I1554806218
aI951862096
abaS'map'
p201
abag0
(g28
g2
Ntp202
Rp203
(lp204
g0
(g32
g2
Ntp205
Rp206
(lp207
F0.2354899411931524
aF3.212859959220367
aF0.0
abag0
(g36
g2
Ntp208
Rp209
(lp210
F0.0
aF0.0
aF0.3675376254238192
aF0.9300086525929855
abababag0
(g16
g2
Ntp211
Rp212
(lp213
g0
(g6
g2
Ntp214
Rp215
(lp216
I10
ag0
(g23
g2
Ntp217
Rp218
(lp219
I1554806219
aI220067977
abaS'map'
p220
abag0
(g28
g2
Ntp221
Rp222
(lp223
g0
(g32
g2
Ntp224
Rp225
(lp226
F0.15912064397524775
aF3.2775536817656192
aF0.0
abag0
(g36
g2
Ntp227
Rp228
(lp229
F0.0
aF0.0
aF0.35815203812340235
aF0.9336632784832297
abababag0
(g16
g2
Ntp230
Rp231
(lp232
g0
(g6
g2
Ntp233
Rp234
(lp235
I11
ag0
(g23
g2
Ntp236
Rp237
(lp238
I1554806219
aI553067922
abaS'map'
p239
abag0
(g28
g2
Ntp240
Rp241
(lp242
g0
(g32
g2
Ntp243
Rp244
(lp245
F0.07139823991362122
aF3.3461154655020295
aF0.0
abag0
(g36
g2
Ntp246
Rp247
(lp248
F0.0
aF0.0
aF0.3550974073677336
aF0.9348293059594964
abababag0
(g16
g2
Ntp249
Rp250
(lp251
g0
(g6
g2
Ntp252
Rp253
(lp254
I12
ag0
(g23
g2
Ntp255
Rp256
(lp257
I1554806219
aI781012058
abaS'map'
p258
abag0
(g28
g2
Ntp259
Rp260
(lp261
g0
(g32
g2
Ntp262
Rp263
(lp264
F-0.003516513777998264
aF3.4319723544625647
aF0.0
abag0
(g36
g2
Ntp265
Rp266
(lp267
F0.0
aF0.0
aF0.3526641378252762
aF0.9357499697525801
abababag0
(g16
g2
Ntp268
Rp269
(lp270
g0
(g6
g2
Ntp271
Rp272
(lp273
I13
ag0
(g23
g2
Ntp274
Rp275
(lp276
I1554806220
aI82319021
abaS'map'
p277
abag0
(g28
g2
Ntp278
Rp279
(lp280
g0
(g32
g2
Ntp281
Rp282
(lp283
F-0.08236846216417576
aF3.4942354839609333
aF0.0
abag0
(g36
g2
Ntp284
Rp285
(lp286
F0.0
aF0.0
aF0.352670308510288
aF0.9357476441302207
abababag0
(g16
g2
Ntp287
Rp288
(lp289
g0
(g6
g2
Ntp290
Rp291
(lp292
I14
ag0
(g23
g2
Ntp293
Rp294
(lp295
I1554806220
aI352195978
abaS'map'
p296
abag0
(g28
g2
Ntp297
Rp298
(lp299
g0
(g32
g2
Ntp300
Rp301
(lp302
F-0.1671387082925558
aF3.5494498348515804
aF0.0
abag0
(g36
g2
Ntp303
Rp304
(lp305
F0.0
aF0.0
aF0.36059438127058097
aF0.9327227306097385
abababag0
(g16
g2
Ntp306
Rp307
(lp308
g0
(g6
g2
Ntp309
Rp310
(lp311
I15
ag0
(g23
g2
Ntp312
Rp313
(lp314
I1554806220
aI649030923
abaS'map'
p315
abag0
(g28
g2
Ntp316
Rp317
(lp318
g0
(g32
g2
Ntp319
Rp320
(lp321
F-0.24081741108189622
aF3.6193710688481686
aF0.0
abag0
(g36
g2
Ntp322
Rp323
(lp324
F0.0
aF0.0
aF0.3585340984011296
aF0.9335166309625603
abababag0
(g16
g2
Ntp325
Rp326
(lp327
g0
(g6
g2
Ntp328
Rp329
(lp330
I16
ag0
(g23
g2
Ntp331
Rp332
(lp333
I1554806220
aI981369018
abaS'map'
p334
abag0
(g28
g2
Ntp335
Rp336
(lp337
g0
(g32
g2
Ntp338
Rp339
(lp340
F-0.3161481990491489
aF3.686654566206931
aF0.0
abag0
(g36
g2
Ntp341
Rp342
(lp343
F0.0
aF0.0
aF0.32992554963039095
aF0.9440069553245275
abababag0
(g16
g2
Ntp344
Rp345
(lp346
g0
(g6
g2
Ntp347
Rp348
(lp349
I17
ag0
(g23
g2
Ntp350
Rp351
(lp352
I1554806221
aI283416986
abaS'map'
p353
abag0
(g28
g2
Ntp354
Rp355
(lp356
g0
(g32
g2
Ntp357
Rp358
(lp359
F-0.3938817783136528
aF3.7575110779904914
aF0.0
abag0
(g36
g2
Ntp360
Rp361
(lp362
F0.0
aF0.0
aF0.29895923750635023
aF0.9542658823984129
abababag0
(g16
g2
Ntp363
Rp364
(lp365
g0
(g6
g2
Ntp366
Rp367
(lp368
I18
ag0
(g23
g2
Ntp369
Rp370
(lp371
I1554806221
aI549623012
abaS'map'
p372
abag0
(g28
g2
Ntp373
Rp374
(lp375
g0
(g32
g2
Ntp376
Rp377
(lp378
F-0.4783845581753553
aF3.8153474737616033
aF0.0
abag0
(g36
g2
Ntp379
Rp380
(lp381
F0.0
aF0.0
aF0.2757012965640683
aF0.9612433589226465
abababag0
(g16
g2
Ntp382
Rp383
(lp384
g0
(g6
g2
Ntp385
Rp386
(lp387
I19
ag0
(g23
g2
Ntp388
Rp389
(lp390
I1554806221
aI849601030
abaS'map'
p391
abag0
(g28
g2
Ntp392
Rp393
(lp394
g0
(g32
g2
Ntp395
Rp396
(lp397
F-0.5690111504256395
aF3.8659993366932945
aF0.0
abag0
(g36
g2
Ntp398
Rp399
(lp400
F0.0
aF0.0
aF0.25760809215282704
aF0.9662494868600866
abababag0
(g16
g2
Ntp401
Rp402
(lp403
g0
(g6
g2
Ntp404
Rp405
(lp406
I20
ag0
(g23
g2
Ntp407
Rp408
(lp409
I1554806222
aI149713039
abaS'map'
p410
abag0
(g28
g2
Ntp411
Rp412
(lp413
g0
(g32
g2
Ntp414
Rp415
(lp416
F-0.6594285607014956
aF3.9200784184854935
aF0.0
abag0
(g36
g2
Ntp417
Rp418
(lp419
F0.0
aF0.0
aF0.25626297404571186
aF0.9666071012222323
abababag0
(g16
g2
Ntp420
Rp421
(lp422
g0
(g6
g2
Ntp423
Rp424
(lp425
I21
ag0
(g23
g2
Ntp426
Rp427
(lp428
I1554806222
aI516765117
abaS'map'
p429
abag0
(g28
g2
Ntp430
Rp431
(lp432
g0
(g32
g2
Ntp433
Rp434
(lp435
F-0.7515954312769918
aF3.96834857254402
aF0.0
abag0
(g36
g2
Ntp436
Rp437
(lp438
F0.0
aF0.0
aF0.2788186093869733
aF0.9603437837876155
abababag0
(g16
g2
Ntp439
Rp440
(lp441
g0
(g6
g2
Ntp442
Rp443
(lp444
I22
ag0
(g23
g2
Ntp445
Rp446
(lp447
I1554806222
aI851793050
abaS'map'
p448
abag0
(g28
g2
Ntp449
Rp450
(lp451
g0
(g32
g2
Ntp452
Rp453
(lp454
F-0.8403422375034681
aF4.023417105739935
aF0.0
abag0
(g36
g2
Ntp455
Rp456
(lp457
F0.0
aF0.0
aF0.3083460649009762
aF0.9512742529155738
abababag0
(g16
g2
Ntp458
Rp459
(lp460
g0
(g6
g2
Ntp461
Rp462
(lp463
I23
ag0
(g23
g2
Ntp464
Rp465
(lp466
I1554806223
aI185560941
abaS'map'
p467
abag0
(g28
g2
Ntp468
Rp469
(lp470
g0
(g32
g2
Ntp471
Rp472
(lp473
F-0.935192800994554
aF4.084200559746518
aF0.0
abag0
(g36
g2
Ntp474
Rp475
(lp476
F0.0
aF0.0
aF0.3322453486013663
aF0.9431929963336012
abababag0
(g16
g2
Ntp477
Rp478
(lp479
g0
(g6
g2
Ntp480
Rp481
(lp482
I24
ag0
(g23
g2
Ntp483
Rp484
(lp485
I1554806223
aI547857046
abaS'map'
p486
abag0
(g28
g2
Ntp487
Rp488
(lp489
g0
(g32
g2
Ntp490
Rp491
(lp492
F-1.0219915512207112
aF4.160150592391051
aF0.0
abag0
(g36
g2
Ntp493
Rp494
(lp495
F0.0
aF0.0
aF0.35182665956318937
aF0.9360651695371469
abababag0
(g16
g2
Ntp496
Rp497
(lp498
g0
(g6
g2
Ntp499
Rp500
(lp501
I25
ag0
(g23
g2
Ntp502
Rp503
(lp504
I1554806223
aI883637905
abaS'map'
p505
abag0
(g28
g2
Ntp506
Rp507
(lp508
g0
(g32
g2
Ntp509
Rp510
(lp511
F-1.10575704896615
aF4.217941230748546
aF0.0
abag0
(g36
g2
Ntp512
Rp513
(lp514
F0.0
aF0.0
aF0.362666540591716
aF0.9319189773447245
abababag0
(g16
g2
Ntp515
Rp516
(lp517
g0
(g6
g2
Ntp518
Rp519
(lp520
I26
ag0
(g23
g2
Ntp521
Rp522
(lp523
I1554806224
aI217817068
abaS'map'
p524
abag0
(g28
g2
Ntp525
Rp526
(lp527
g0
(g32
g2
Ntp528
Rp529
(lp530
F-1.1918594650726886
aF4.288424071446723
aF0.0
abag0
(g36
g2
Ntp531
Rp532
(lp533
F0.0
aF0.0
aF0.37574050617625027
aF0.9267249171239625
abababag0
(g16
g2
Ntp534
Rp535
(lp536
g0
(g6
g2
Ntp537
Rp538
(lp539
I27
ag0
(g23
g2
Ntp540
Rp541
(lp542
I1554806224
aI515456914
abaS'map'
p543
abag0
(g28
g2
Ntp544
Rp545
(lp546
g0
(g32
g2
Ntp547
Rp548
(lp549
F-1.270210419737198
aF4.3603928543315655
aF0.0
abag0
(g36
g2
Ntp550
Rp551
(lp552
F0.0
aF0.0
aF0.4029541967670006
aF0.9152201458162191
abababag0
(g16
g2
Ntp553
Rp554
(lp555
g0
(g6
g2
Ntp556
Rp557
(lp558
I28
ag0
(g23
g2
Ntp559
Rp560
(lp561
I1554806224
aI816874980
abaS'map'
p562
abag0
(g28
g2
Ntp563
Rp564
(lp565
g0
(g32
g2
Ntp566
Rp567
(lp568
F-1.3459566228044175
aF4.44118699216817
aF0.0
abag0
(g36
g2
Ntp569
Rp570
(lp571
F0.0
aF0.0
aF0.4299889281591435
aF0.9028341606632698
abababag0
(g16
g2
Ntp572
Rp573
(lp574
g0
(g6
g2
Ntp575
Rp576
(lp577
I29
ag0
(g23
g2
Ntp578
Rp579
(lp580
I1554806225
aI81868886
abaS'map'
p581
abag0
(g28
g2
Ntp582
Rp583
(lp584
g0
(g32
g2
Ntp585
Rp586
(lp587
F-1.423905885453799
aF4.5403578538707565
aF0.0
abag0
(g36
g2
Ntp588
Rp589
(lp590
F0.0
aF0.0
aF0.46080378359754065
aF0.8875020411369153
abababag0
(g16
g2
Ntp591
Rp592
(lp593
g0
(g6
g2
Ntp594
Rp595
(lp596
I30
ag0
(g23
g2
Ntp597
Rp598
(lp599
I1554806225
aI517944097
abaS'map'
p600
abag0
(g28
g2
Ntp601
Rp602
(lp603
g0
(g32
g2
Ntp604
Rp605
(lp606
F-1.507925507043391
aF4.612127835579731
aF0.0
abag0
(g36
g2
Ntp607
Rp608
(lp609
F0.0
aF0.0
aF0.5218435962217419
aF0.8530411836965198
abababag0
(g16
g2
Ntp610
Rp611
(lp612
g0
(g6
g2
Ntp613
Rp614
(lp615
I31
ag0
(g23
g2
Ntp616
Rp617
(lp618
I1554806225
aI851274967
abaS'map'
p619
abag0
(g28
g2
Ntp620
Rp621
(lp622
g0
(g32
g2
Ntp623
Rp624
(lp625
F-1.5711356709456106
aF4.699432499886641
aF0.0
abag0
(g36
g2
Ntp626
Rp627
(lp628
F0.0
aF0.0
aF0.5860860692421939
aF0.8102488009495813
abababag0
(g16
g2
Ntp629
Rp630
(lp631
g0
(g6
g2
Ntp632
Rp633
(lp634
I32
ag0
(g23
g2
Ntp635
Rp636
(lp637
I1554806226
aI117377042
abaS'map'
p638
abag0
(g28
g2
Ntp639
Rp640
(lp641
g0
(g32
g2
Ntp642
Rp643
(lp644
F-1.6200175377910448
aF4.801392065003397
aF0.0
abag0
(g36
g2
Ntp645
Rp646
(lp647
F0.0
aF0.0
aF0.6450117161360919
aF0.7641726807778288
abababag0
(g16
g2
Ntp648
Rp649
(lp650
g0
(g6
g2
Ntp651
Rp652
(lp653
I33
ag0
(g23
g2
Ntp654
Rp655
(lp656
I1554806226
aI418421030
abaS'map'
p657
abag0
(g28
g2
Ntp658
Rp659
(lp660
g0
(g32
g2
Ntp661
Rp662
(lp663
F-1.6566308673283012
aF4.918550637785489
aF0.0
abag0
(g36
g2
Ntp664
Rp665
(lp666
F0.0
aF0.0
aF0.6972574785931148
aF0.7168207645890095
abababag0
(g16
g2
Ntp667
Rp668
(lp669
g0
(g6
g2
Ntp670
Rp671
(lp672
I34
ag0
(g23
g2
Ntp673
Rp674
(lp675
I1554806226
aI680217981
abaS'map'
p676
abag0
(g28
g2
Ntp677
Rp678
(lp679
g0
(g32
g2
Ntp680
Rp681
(lp682
F-1.6781037726357488
aF5.027547513710762
aF0.0
abag0
(g36
g2
Ntp683
Rp684
(lp685
F0.0
aF-0.0
aF-0.7184288515718217
aF-0.6956004494170439
abababag0
(g16
g2
Ntp686
Rp687
(lp688
g0
(g6
g2
Ntp689
Rp690
(lp691
I35
ag0
(g23
g2
Ntp692
Rp693
(lp694
I1554806227
aI46845912
abaS'map'
p695
abag0
(g28
g2
Ntp696
Rp697
(lp698
g0
(g32
g2
Ntp699
Rp700
(lp701
F-1.6916693057653014
aF5.14386232233863
aF0.0
abag0
(g36
g2
Ntp702
Rp703
(lp704
F0.0
aF-0.0
aF-0.7262047051548749
aF-0.6874785278180848
abababaab.