ccopy_reg
_reconstructor
p0
(cnav_msgs.msg._Path
Path
p1
c__builtin__
object
p2
Ntp3
Rp4
(lp5
g0
(cstd_msgs.msg._Header
Header
p6
g2
Ntp7
Rp8
(lp9
I0
ag0
(crospy.rostime
Time
p10
g2
Ntp11
Rp12
(lp13
I1554806033
aI638652086
abaS'base_link'
p14
aba(lp15
g0
(cgeometry_msgs.msg._PoseStamped
PoseStamped
p16
g2
Ntp17
Rp18
(lp19
g0
(g6
g2
Ntp20
Rp21
(lp22
I0
ag0
(cgenpy.rostime
Time
p23
g2
Ntp24
Rp25
(lp26
I1554806033
aI608097076
abaS'map'
p27
abag0
(cgeometry_msgs.msg._Pose
Pose
p28
g2
Ntp29
Rp30
(lp31
g0
(cgeometry_msgs.msg._Point
Point
p32
g2
Ntp33
Rp34
(lp35
F-1.1197705897389267
aF2.176190463386294
aF0.0
abag0
(cgeometry_msgs.msg._Quaternion
Quaternion
p36
g2
Ntp37
Rp38
(lp39
F0.0
aF0.0
aF0.6989275103341356
aF0.7151925162486859
abababag0
(g16
g2
Ntp40
Rp41
(lp42
g0
(g6
g2
Ntp43
Rp44
(lp45
I1
ag0
(g23
g2
Ntp46
Rp47
(lp48
I1554806039
aI448213100
abaS'map'
p49
abag0
(g28
g2
Ntp50
Rp51
(lp52
g0
(g32
g2
Ntp53
Rp54
(lp55
F-1.11512061382904
aF2.279752226867135
aF0.0
abag0
(g36
g2
Ntp56
Rp57
(lp58
F0.0
aF0.0
aF0.6402032249218426
aF0.7682055914920645
abababag0
(g16
g2
Ntp59
Rp60
(lp61
g0
(g6
g2
Ntp62
Rp63
(lp64
I2
ag0
(g23
g2
Ntp65
Rp66
(lp67
I1554806040
aI74829101
abaS'map'
p68
abag0
(g28
g2
Ntp69
Rp70
(lp71
g0
(g32
g2
Ntp72
Rp73
(lp74
F-1.1254683657191917
aF2.380022843648959
aF0.0
abag0
(g36
g2
Ntp75
Rp76
(lp77
F0.0
aF0.0
aF0.5735468184385418
aF0.8191727821766458
abababag0
(g16
g2
Ntp78
Rp79
(lp80
g0
(g6
g2
Ntp81
Rp82
(lp83
I3
ag0
(g23
g2
Ntp84
Rp85
(lp86
I1554806040
aI545116901
abaS'map'
p87
abag0
(g28
g2
Ntp88
Rp89
(lp90
g0
(g32
g2
Ntp91
Rp92
(lp93
F-1.166842248796643
aF2.479272849344325
aF0.0
abag0
(g36
g2
Ntp94
Rp95
(lp96
F0.0
aF0.0
aF0.5832218339549717
aF0.8123129276320791
abababag0
(g16
g2
Ntp97
Rp98
(lp99
g0
(g6
g2
Ntp100
Rp101
(lp102
I4
ag0
(g23
g2
Ntp103
Rp104
(lp105
I1554806040
aI977279901
abaS'map'
p106
abag0
(g28
g2
Ntp107
Rp108
(lp109
g0
(g32
g2
Ntp110
Rp111
(lp112
F-1.209873875637546
aF2.57397112143672
aF0.0
abag0
(g36
g2
Ntp113
Rp114
(lp115
F0.0
aF0.0
aF0.6174083338474412
aF0.786642834643351
abababag0
(g16
g2
Ntp116
Rp117
(lp118
g0
(g6
g2
Ntp119
Rp120
(lp121
I5
ag0
(g23
g2
Ntp122
Rp123
(lp124
I1554806041
aI276305913
abaS'map'
p125
abag0
(g28
g2
Ntp126
Rp127
(lp128
g0
(g32
g2
Ntp129
Rp130
(lp131
F-1.2418253539864859
aF2.671729325812466
aF0.0
abag0
(g36
g2
Ntp132
Rp133
(lp134
F0.0
aF0.0
aF0.6346476415384061
aF0.7728016376080855
abababag0
(g16
g2
Ntp135
Rp136
(lp137
g0
(g6
g2
Ntp138
Rp139
(lp140
I6
ag0
(g23
g2
Ntp141
Rp142
(lp143
I1554806041
aI610548973
abaS'map'
p144
abag0
(g28
g2
Ntp145
Rp146
(lp147
g0
(g32
g2
Ntp148
Rp149
(lp150
F-1.2639926281902563
aF2.769814485137825
aF0.0
abag0
(g36
g2
Ntp151
Rp152
(lp153
F0.0
aF0.0
aF0.6468580258984562
aF0.7626104472997679
abababag0
(g16
g2
Ntp154
Rp155
(lp156
g0
(g6
g2
Ntp157
Rp158
(lp159
I7
ag0
(g23
g2
Ntp160
Rp161
(lp162
I1554806041
aI945363044
abaS'map'
p163
abag0
(g28
g2
Ntp164
Rp165
(lp166
g0
(g32
g2
Ntp167
Rp168
(lp169
F-1.2883943009817391
aF2.8756914407829526
aF0.0
abag0
(g36
g2
Ntp170
Rp171
(lp172
F0.0
aF0.0
aF0.6462005201340664
aF0.7631676668848478
abababag0
(g16
g2
Ntp173
Rp174
(lp175
g0
(g6
g2
Ntp176
Rp177
(lp178
I8
ag0
(g23
g2
Ntp179
Rp180
(lp181
I1554806042
aI210019111
abaS'map'
p182
abag0
(g28
g2
Ntp183
Rp184
(lp185
g0
(g32
g2
Ntp186
Rp187
(lp188
F-1.3076422417158162
aF2.9749894573922733
aF0.0
abag0
(g36
g2
Ntp189
Rp190
(lp191
F0.0
aF0.0
aF0.6462727896701558
aF0.7631064678876431
abababag0
(g16
g2
Ntp192
Rp193
(lp194
g0
(g6
g2
Ntp195
Rp196
(lp197
I9
ag0
(g23
g2
Ntp198
Rp199
(lp200
I1554806042
aI475522041
abaS'map'
p201
abag0
(g28
g2
Ntp202
Rp203
(lp204
g0
(g32
g2
Ntp205
Rp206
(lp207
F-1.3287055584862955
aF3.077989755180909
aF0.0
abag0
(g36
g2
Ntp208
Rp209
(lp210
F0.0
aF0.0
aF0.6464991045028616
aF0.7629147448286723
abababag0
(g16
g2
Ntp211
Rp212
(lp213
g0
(g6
g2
Ntp214
Rp215
(lp216
I10
ag0
(g23
g2
Ntp217
Rp218
(lp219
I1554806042
aI709012985
abaS'map'
p220
abag0
(g28
g2
Ntp221
Rp222
(lp223
g0
(g32
g2
Ntp224
Rp225
(lp226
F-1.351311800362474
aF3.1826555806899406
aF0.0
abag0
(g36
g2
Ntp227
Rp228
(lp229
F0.0
aF0.0
aF0.6481447458774088
aF0.7615171622435762
abababag0
(g16
g2
Ntp230
Rp231
(lp232
g0
(g6
g2
Ntp233
Rp234
(lp235
I11
ag0
(g23
g2
Ntp236
Rp237
(lp238
I1554806043
aI13808965
abaS'map'
p239
abag0
(g28
g2
Ntp240
Rp241
(lp242
g0
(g32
g2
Ntp243
Rp244
(lp245
F-1.3738969645710657
aF3.2947630580648855
aF0.0
abag0
(g36
g2
Ntp246
Rp247
(lp248
F0.0
aF0.0
aF0.6550519348490145
aF0.7555838554724171
abababag0
(g16
g2
Ntp249
Rp250
(lp251
g0
(g6
g2
Ntp252
Rp253
(lp254
I12
ag0
(g23
g2
Ntp255
Rp256
(lp257
I1554806043
aI274596929
abaS'map'
p258
abag0
(g28
g2
Ntp259
Rp260
(lp261
g0
(g32
g2
Ntp262
Rp263
(lp264
F-1.3952912668456272
aF3.401960606471064
aF0.0
abag0
(g36
g2
Ntp265
Rp266
(lp267
F0.0
aF0.0
aF0.6581924375208567
aF0.7528497294881318
abababag0
(g16
g2
Ntp268
Rp269
(lp270
g0
(g6
g2
Ntp271
Rp272
(lp273
I13
ag0
(g23
g2
Ntp274
Rp275
(lp276
I1554806043
aI479861974
abaS'map'
p277
abag0
(g28
g2
Ntp278
Rp279
(lp280
g0
(g32
g2
Ntp281
Rp282
(lp283
F-1.4143090733780708
aF3.5071626473453654
aF0.0
abag0
(g36
g2
Ntp284
Rp285
(lp286
F0.0
aF0.0
aF0.662919247564037
aF0.7486909049862507
abababag0
(g16
g2
Ntp287
Rp288
(lp289
g0
(g6
g2
Ntp290
Rp291
(lp292
I14
ag0
(g23
g2
Ntp293
Rp294
(lp295
I1554806043
aI708997964
abaS'map'
p296
abag0
(g28
g2
Ntp297
Rp298
(lp299
g0
(g32
g2
Ntp300
Rp301
(lp302
F-1.4328614101372827
aF3.61669335630472
aF0.0
abag0
(g36
g2
Ntp303
Rp304
(lp305
F0.0
aF0.0
aF0.6703764095436305
aF0.7420212055779745
abababag0
(g16
g2
Ntp306
Rp307
(lp308
g0
(g6
g2
Ntp309
Rp310
(lp311
I15
ag0
(g23
g2
Ntp312
Rp313
(lp314
I1554806043
aI948997020
abaS'map'
p315
abag0
(g28
g2
Ntp316
Rp317
(lp318
g0
(g32
g2
Ntp319
Rp320
(lp321
F-1.4517242214347388
aF3.7287497404738406
aF0.0
abag0
(g36
g2
Ntp322
Rp323
(lp324
F0.0
aF0.0
aF0.6803610891372907
aF0.7328770622607312
abababag0
(g16
g2
Ntp325
Rp326
(lp327
g0
(g6
g2
Ntp328
Rp329
(lp330
I16
ag0
(g23
g2
Ntp331
Rp332
(lp333
I1554806044
aI176503896
abaS'map'
p334
abag0
(g28
g2
Ntp335
Rp336
(lp337
g0
(g32
g2
Ntp338
Rp339
(lp340
F-1.4734426418723883
aF3.8550475008540492
aF0.0
abag0
(g36
g2
Ntp341
Rp342
(lp343
F0.0
aF0.0
aF0.6869545770650531
aF0.726700357127595
abababag0
(g16
g2
Ntp344
Rp345
(lp346
g0
(g6
g2
Ntp347
Rp348
(lp349
I17
ag0
(g23
g2
Ntp350
Rp351
(lp352
I1554806044
aI410801887
abaS'map'
p353
abag0
(g28
g2
Ntp354
Rp355
(lp356
g0
(g32
g2
Ntp357
Rp358
(lp359
F-1.4832214424052999
aF3.958146585515826
aF0.0
abag0
(g36
g2
Ntp360
Rp361
(lp362
F0.0
aF0.0
aF0.6958629231773504
aF0.718174625106647
abababag0
(g16
g2
Ntp363
Rp364
(lp365
g0
(g6
g2
Ntp366
Rp367
(lp368
I18
ag0
(g23
g2
Ntp369
Rp370
(lp371
I1554806044
aI675977945
abaS'map'
p372
abag0
(g28
g2
Ntp373
Rp374
(lp375
g0
(g32
g2
Ntp376
Rp377
(lp378
F-1.4917641623342126
aF4.063202730613337
aF0.0
abag0
(g36
g2
Ntp379
Rp380
(lp381
F0.0
aF0.0
aF0.7017904787476221
aF0.7123834107692172
abababag0
(g16
g2
Ntp382
Rp383
(lp384
g0
(g6
g2
Ntp385
Rp386
(lp387
I19
ag0
(g23
g2
Ntp388
Rp389
(lp390
I1554806044
aI947283983
abaS'map'
p391
abag0
(g28
g2
Ntp392
Rp393
(lp394
g0
(g32
g2
Ntp395
Rp396
(lp397
F-1.4941421303488769
aF4.168356495701243
aF0.0
abag0
(g36
g2
Ntp398
Rp399
(lp400
F0.0
aF0.0
aF0.7046845748550141
aF0.7095207184863653
abababag0
(g16
g2
Ntp401
Rp402
(lp403
g0
(g6
g2
Ntp404
Rp405
(lp406
I20
ag0
(g23
g2
Ntp407
Rp408
(lp409
I1554806045
aI178520917
abaS'map'
p410
abag0
(g28
g2
Ntp411
Rp412
(lp413
g0
(g32
g2
Ntp414
Rp415
(lp416
F-1.5008867800269479
aF4.28483188089225
aF0.0
abag0
(g36
g2
Ntp417
Rp418
(lp419
F0.0
aF0.0
aF0.7033756144541128
aF0.7108183628686722
abababag0
(g16
g2
Ntp420
Rp421
(lp422
g0
(g6
g2
Ntp423
Rp424
(lp425
I21
ag0
(g23
g2
Ntp426
Rp427
(lp428
I1554806046
aI47527074
abaS'map'
p429
abag0
(g28
g2
Ntp430
Rp431
(lp432
g0
(g32
g2
Ntp433
Rp434
(lp435
F-1.522471347853278
aF4.608416297473909
aF0.0
abag0
(g36
g2
Ntp436
Rp437
(lp438
F0.0
aF0.0
aF0.6751848553174459
aF0.7376485688659333
abababag0
(g16
g2
Ntp439
Rp440
(lp441
g0
(g6
g2
Ntp442
Rp443
(lp444
I22
ag0
(g23
g2
Ntp445
Rp446
(lp447
I1554806046
aI312235116
abaS'map'
p448
abag0
(g28
g2
Ntp449
Rp450
(lp451
g0
(g32
g2
Ntp452
Rp453
(lp454
F-1.538923578833549
aF4.725907081886504
aF0.0
abag0
(g36
g2
Ntp455
Rp456
(lp457
F0.0
aF0.0
aF0.6737039977133796
aF0.7390013013960196
abababag0
(g16
g2
Ntp458
Rp459
(lp460
g0
(g6
g2
Ntp461
Rp462
(lp463
I23
ag0
(g23
g2
Ntp464
Rp465
(lp466
I1554806046
aI706660985
abaS'map'
p467
abag0
(g28
g2
Ntp468
Rp469
(lp470
g0
(g32
g2
Ntp471
Rp472
(lp473
F-1.5566415110477687
aF4.842957559521109
aF0.0
abag0
(g36
g2
Ntp474
Rp475
(lp476
F0.0
aF0.0
aF0.6731383576199658
aF0.7395165660759028
abababag0
(g16
g2
Ntp477
Rp478
(lp479
g0
(g6
g2
Ntp480
Rp481
(lp482
I24
ag0
(g23
g2
Ntp483
Rp484
(lp485
I1554806047
aI109760999
abaS'map'
p486
abag0
(g28
g2
Ntp487
Rp488
(lp489
g0
(g32
g2
Ntp490
Rp491
(lp492
F-1.5720979795721002
aF4.955409624850635
aF0.0
abag0
(g36
g2
Ntp493
Rp494
(lp495
F0.0
aF0.0
aF0.6808505788725243
aF0.732422343493799
abababag0
(g16
g2
Ntp496
Rp497
(lp498
g0
(g6
g2
Ntp499
Rp500
(lp501
I25
ag0
(g23
g2
Ntp502
Rp503
(lp504
I1554806047
aI309746026
abaS'map'
p505
abag0
(g28
g2
Ntp506
Rp507
(lp508
g0
(g32
g2
Ntp509
Rp510
(lp511
F-1.5930885439141897
aF5.054024674088556
aF0.0
abag0
(g36
g2
Ntp512
Rp513
(lp514
F0.0
aF0.0
aF0.678482870596122
aF0.7346162224642511
abababag0
(g16
g2
Ntp515
Rp516
(lp517
g0
(g6
g2
Ntp518
Rp519
(lp520
I26
ag0
(g23
g2
Ntp521
Rp522
(lp523
I1554806047
aI844120025
abaS'map'
p524
abag0
(g28
g2
Ntp525
Rp526
(lp527
g0
(g32
g2
Ntp528
Rp529
(lp530
F-1.6065170684619803
aF5.1692073997991255
aF0.0
abag0
(g36
g2
Ntp531
Rp532
(lp533
F0.0
aF0.0
aF0.6921943589011624
aF0.7217111399343984
abababag0
(g16
g2
Ntp534
Rp535
(lp536
g0
(g6
g2
Ntp537
Rp538
(lp539
I27
ag0
(g23
g2
Ntp540
Rp541
(lp542
I1554806048
aI377623081
abaS'map'
p543
abag0
(g28
g2
Ntp544
Rp545
(lp546
g0
(g32
g2
Ntp547
Rp548
(lp549
F-1.6160258118369832
aF5.2747754897517645
aF0.0
abag0
(g36
g2
Ntp550
Rp551
(lp552
F0.0
aF0.0
aF0.6938242625006195
aF0.7201443555048331
abababaab.