ccopy_reg
_reconstructor
p0
(cnav_msgs.msg._Path
Path
p1
c__builtin__
object
p2
Ntp3
Rp4
(lp5
g0
(cstd_msgs.msg._Header
Header
p6
g2
Ntp7
Rp8
(lp9
I0
ag0
(crospy.rostime
Time
p10
g2
Ntp11
Rp12
(lp13
I1554799552
aI117389917
abaS'base_link'
p14
aba(lp15
g0
(cgeometry_msgs.msg._PoseStamped
PoseStamped
p16
g2
Ntp17
Rp18
(lp19
g0
(g6
g2
Ntp20
Rp21
(lp22
I0
ag0
(cgenpy.rostime
Time
p23
g2
Ntp24
Rp25
(lp26
I1554799552
aI110400915
abaS'map'
p27
abag0
(cgeometry_msgs.msg._Pose
Pose
p28
g2
Ntp29
Rp30
(lp31
g0
(cgeometry_msgs.msg._Point
Point
p32
g2
Ntp33
Rp34
(lp35
F-1.662765710050422
aF5.327643406756013
aF0.0
abag0
(cgeometry_msgs.msg._Quaternion
Quaternion
p36
g2
Ntp37
Rp38
(lp39
F0.0
aF0.0
aF-0.7135629768595699
aF0.7005910919040499
abababag0
(g16
g2
Ntp40
Rp41
(lp42
g0
(g6
g2
Ntp43
Rp44
(lp45
I1
ag0
(g23
g2
Ntp46
Rp47
(lp48
I1554799553
aI741717100
abaS'map'
p49
abag0
(g28
g2
Ntp50
Rp51
(lp52
g0
(g32
g2
Ntp53
Rp54
(lp55
F-1.6535258169721565
aF5.227435855124096
aF0.0
abag0
(g36
g2
Ntp56
Rp57
(lp58
F0.0
aF0.0
aF-0.7061488343585539
aF0.7080634319988962
abababag0
(g16
g2
Ntp59
Rp60
(lp61
g0
(g6
g2
Ntp62
Rp63
(lp64
I2
ag0
(g23
g2
Ntp65
Rp66
(lp67
I1554799554
aI443286895
abaS'map'
p68
abag0
(g28
g2
Ntp69
Rp70
(lp71
g0
(g32
g2
Ntp72
Rp73
(lp74
F-1.6532632054434333
aF5.098625471718113
aF0.0
abag0
(g36
g2
Ntp75
Rp76
(lp77
F0.0
aF0.0
aF-0.7305866103071679
aF0.682820038399491
abababag0
(g16
g2
Ntp78
Rp79
(lp80
g0
(g6
g2
Ntp81
Rp82
(lp83
I3
ag0
(g23
g2
Ntp84
Rp85
(lp86
I1554799554
aI918204069
abaS'map'
p87
abag0
(g28
g2
Ntp88
Rp89
(lp90
g0
(g32
g2
Ntp91
Rp92
(lp93
F-1.650037427812718
aF4.985090994984804
aF0.0
abag0
(g36
g2
Ntp94
Rp95
(lp96
F0.0
aF0.0
aF-0.7688764626904837
aF0.6393973608958432
abababag0
(g16
g2
Ntp97
Rp98
(lp99
g0
(g6
g2
Ntp100
Rp101
(lp102
I4
ag0
(g23
g2
Ntp103
Rp104
(lp105
I1554799555
aI310358047
abaS'map'
p106
abag0
(g28
g2
Ntp107
Rp108
(lp109
g0
(g32
g2
Ntp110
Rp111
(lp112
F-1.6348817777168296
aF4.877937832215617
aF0.0
abag0
(g36
g2
Ntp113
Rp114
(lp115
F0.0
aF0.0
aF-0.8007002554692537
aF0.5990651891835076
abababag0
(g16
g2
Ntp116
Rp117
(lp118
g0
(g6
g2
Ntp119
Rp120
(lp121
I5
ag0
(g23
g2
Ntp122
Rp123
(lp124
I1554799555
aI879590034
abaS'map'
p125
abag0
(g28
g2
Ntp126
Rp127
(lp128
g0
(g32
g2
Ntp129
Rp130
(lp131
F-1.6047493332300573
aF4.7710822038957925
aF0.0
abag0
(g36
g2
Ntp132
Rp133
(lp134
F0.0
aF0.0
aF-0.833244854647092
aF0.5529041618618425
abababag0
(g16
g2
Ntp135
Rp136
(lp137
g0
(g6
g2
Ntp138
Rp139
(lp140
I6
ag0
(g23
g2
Ntp141
Rp142
(lp143
I1554799556
aI275350093
abaS'map'
p144
abag0
(g28
g2
Ntp145
Rp146
(lp147
g0
(g32
g2
Ntp148
Rp149
(lp150
F-1.56251970484155
aF4.663797166888845
aF0.0
abag0
(g36
g2
Ntp151
Rp152
(lp153
F0.0
aF0.0
aF-0.83748462037544
aF0.5464608957964011
abababag0
(g16
g2
Ntp154
Rp155
(lp156
g0
(g6
g2
Ntp157
Rp158
(lp159
I7
ag0
(g23
g2
Ntp160
Rp161
(lp162
I1554799556
aI574826002
abaS'map'
p163
abag0
(g28
g2
Ntp164
Rp165
(lp166
g0
(g32
g2
Ntp167
Rp168
(lp169
F-1.5201525210667006
aF4.57113281955017
aF0.0
abag0
(g36
g2
Ntp170
Rp171
(lp172
F0.0
aF0.0
aF-0.8368650069594491
aF0.5474093168066846
abababag0
(g16
g2
Ntp173
Rp174
(lp175
g0
(g6
g2
Ntp176
Rp177
(lp178
I8
ag0
(g23
g2
Ntp179
Rp180
(lp181
I1554799556
aI913894891
abaS'map'
p182
abag0
(g28
g2
Ntp183
Rp184
(lp185
g0
(g32
g2
Ntp186
Rp187
(lp188
F-1.476378497502977
aF4.473981240650826
aF0.0
abag0
(g36
g2
Ntp189
Rp190
(lp191
F0.0
aF0.0
aF-0.8385762958178664
aF0.5447841738637295
abababag0
(g16
g2
Ntp192
Rp193
(lp194
g0
(g6
g2
Ntp195
Rp196
(lp197
I9
ag0
(g23
g2
Ntp198
Rp199
(lp200
I1554799557
aI273998022
abaS'map'
p201
abag0
(g28
g2
Ntp202
Rp203
(lp204
g0
(g32
g2
Ntp205
Rp206
(lp207
F-1.4306113926886053
aF4.372655112598685
aF0.0
abag0
(g36
g2
Ntp208
Rp209
(lp210
F0.0
aF0.0
aF-0.8384310212882095
aF0.5450077270476174
abababag0
(g16
g2
Ntp211
Rp212
(lp213
g0
(g6
g2
Ntp214
Rp215
(lp216
I10
ag0
(g23
g2
Ntp217
Rp218
(lp219
I1554799557
aI543323993
abaS'map'
p220
abag0
(g28
g2
Ntp221
Rp222
(lp223
g0
(g32
g2
Ntp224
Rp225
(lp226
F-1.3876281706386522
aF4.271287706113517
aF0.0
abag0
(g36
g2
Ntp227
Rp228
(lp229
F0.0
aF0.0
aF-0.8372876684974505
aF0.5467626177621359
abababag0
(g16
g2
Ntp230
Rp231
(lp232
g0
(g6
g2
Ntp233
Rp234
(lp235
I11
ag0
(g23
g2
Ntp236
Rp237
(lp238
I1554799557
aI876565933
abaS'map'
p239
abag0
(g28
g2
Ntp240
Rp241
(lp242
g0
(g32
g2
Ntp243
Rp244
(lp245
F-1.3426969382943779
aF4.172249324254881
aF0.0
abag0
(g36
g2
Ntp246
Rp247
(lp248
F0.0
aF0.0
aF-0.8379768169521722
aF0.5457058312412519
abababag0
(g16
g2
Ntp249
Rp250
(lp251
g0
(g6
g2
Ntp252
Rp253
(lp254
I12
ag0
(g23
g2
Ntp255
Rp256
(lp257
I1554799558
aI213432073
abaS'map'
p258
abag0
(g28
g2
Ntp259
Rp260
(lp261
g0
(g32
g2
Ntp262
Rp263
(lp264
F-1.2985435539989516
aF4.072439255024003
aF0.0
abag0
(g36
g2
Ntp265
Rp266
(lp267
F0.0
aF0.0
aF-0.8399668188114509
aF0.5426377643472405
abababag0
(g16
g2
Ntp268
Rp269
(lp270
g0
(g6
g2
Ntp271
Rp272
(lp273
I13
ag0
(g23
g2
Ntp274
Rp275
(lp276
I1554799558
aI511353015
abaS'map'
p277
abag0
(g28
g2
Ntp278
Rp279
(lp280
g0
(g32
g2
Ntp281
Rp282
(lp283
F-1.2534089858464093
aF3.974062628149886
aF0.0
abag0
(g36
g2
Ntp284
Rp285
(lp286
F0.0
aF0.0
aF-0.8420216531793395
aF0.5394437279060087
abababag0
(g16
g2
Ntp287
Rp288
(lp289
g0
(g6
g2
Ntp290
Rp291
(lp292
I14
ag0
(g23
g2
Ntp293
Rp294
(lp295
I1554799558
aI843491077
abaS'map'
p296
abag0
(g28
g2
Ntp297
Rp298
(lp299
g0
(g32
g2
Ntp300
Rp301
(lp302
F-1.2110701090979485
aF3.881531694863474
aF0.0
abag0
(g36
g2
Ntp303
Rp304
(lp305
F0.0
aF0.0
aF-0.8448636531144017
aF0.5349816890756055
abababag0
(g16
g2
Ntp306
Rp307
(lp308
g0
(g6
g2
Ntp309
Rp310
(lp311
I15
ag0
(g23
g2
Ntp312
Rp313
(lp314
I1554799559
aI112224102
abaS'map'
p315
abag0
(g28
g2
Ntp316
Rp317
(lp318
g0
(g32
g2
Ntp319
Rp320
(lp321
F-1.1656796694064784
aF3.788991717750185
aF0.0
abag0
(g36
g2
Ntp322
Rp323
(lp324
F0.0
aF0.0
aF-0.8472062010696501
aF0.5312642025105133
abababag0
(g16
g2
Ntp325
Rp326
(lp327
g0
(g6
g2
Ntp328
Rp329
(lp330
I16
ag0
(g23
g2
Ntp331
Rp332
(lp333
I1554799559
aI411865949
abaS'map'
p334
abag0
(g28
g2
Ntp335
Rp336
(lp337
g0
(g32
g2
Ntp338
Rp339
(lp340
F-1.1176257114202952
aF3.6902270388309035
aF0.0
abag0
(g36
g2
Ntp341
Rp342
(lp343
F0.0
aF0.0
aF-0.8467108600631679
aF0.5320533050842656
abababag0
(g16
g2
Ntp344
Rp345
(lp346
g0
(g6
g2
Ntp347
Rp348
(lp349
I17
ag0
(g23
g2
Ntp350
Rp351
(lp352
I1554799559
aI674571990
abaS'map'
p353
abag0
(g28
g2
Ntp354
Rp355
(lp356
g0
(g32
g2
Ntp357
Rp358
(lp359
F-1.0723086141489775
aF3.60039348761339
aF0.0
abag0
(g36
g2
Ntp360
Rp361
(lp362
F0.0
aF0.0
aF-0.8435750604421134
aF0.5370112823769019
abababag0
(g16
g2
Ntp363
Rp364
(lp365
g0
(g6
g2
Ntp366
Rp367
(lp368
I18
ag0
(g23
g2
Ntp369
Rp370
(lp371
I1554799559
aI947155952
abaS'map'
p372
abag0
(g28
g2
Ntp373
Rp374
(lp375
g0
(g32
g2
Ntp376
Rp377
(lp378
F-1.0235729989834526
aF3.5033834080995643
aF0.0
abag0
(g36
g2
Ntp379
Rp380
(lp381
F0.0
aF0.0
aF-0.8376109143460235
aF0.5462672937019188
abababag0
(g16
g2
Ntp382
Rp383
(lp384
g0
(g6
g2
Ntp385
Rp386
(lp387
I19
ag0
(g23
g2
Ntp388
Rp389
(lp390
I1554799560
aI244786024
abaS'map'
p391
abag0
(g28
g2
Ntp392
Rp393
(lp394
g0
(g32
g2
Ntp395
Rp396
(lp397
F-0.9790435558701452
aF3.404514017946291
aF0.0
abag0
(g36
g2
Ntp398
Rp399
(lp400
F0.0
aF0.0
aF-0.8305887633232868
aF0.556886259698597
abababag0
(g16
g2
Ntp401
Rp402
(lp403
g0
(g6
g2
Ntp404
Rp405
(lp406
I20
ag0
(g23
g2
Ntp407
Rp408
(lp409
I1554799560
aI511044025
abaS'map'
p410
abag0
(g28
g2
Ntp411
Rp412
(lp413
g0
(g32
g2
Ntp414
Rp415
(lp416
F-0.9379011377249953
aF3.3090277975006517
aF0.0
abag0
(g36
g2
Ntp417
Rp418
(lp419
F0.0
aF0.0
aF-0.824035096931484
aF0.5665387533303611
abababag0
(g16
g2
Ntp420
Rp421
(lp422
g0
(g6
g2
Ntp423
Rp424
(lp425
I21
ag0
(g23
g2
Ntp426
Rp427
(lp428
I1554799560
aI779572963
abaS'map'
p429
abag0
(g28
g2
Ntp430
Rp431
(lp432
g0
(g32
g2
Ntp433
Rp434
(lp435
F-0.8977747554314116
aF3.2085846969954215
aF0.0
abag0
(g36
g2
Ntp436
Rp437
(lp438
F0.0
aF0.0
aF-0.8243548043414487
aF0.56607345509145
abababag0
(g16
g2
Ntp439
Rp440
(lp441
g0
(g6
g2
Ntp442
Rp443
(lp444
I22
ag0
(g23
g2
Ntp445
Rp446
(lp447
I1554799561
aI43088912
abaS'map'
p448
abag0
(g28
g2
Ntp449
Rp450
(lp451
g0
(g32
g2
Ntp452
Rp453
(lp454
F-0.8585744573398363
aF3.106264525670406
aF0.0
abag0
(g36
g2
Ntp455
Rp456
(lp457
F0.0
aF0.0
aF-0.8285237965650155
aF0.559953853925029
abababag0
(g16
g2
Ntp458
Rp459
(lp460
g0
(g6
g2
Ntp461
Rp462
(lp463
I23
ag0
(g23
g2
Ntp464
Rp465
(lp466
I1554799561
aI311702013
abaS'map'
p467
abag0
(g28
g2
Ntp468
Rp469
(lp470
g0
(g32
g2
Ntp471
Rp472
(lp473
F-0.816263160912883
aF3.0057158464985707
aF0.0
abag0
(g36
g2
Ntp474
Rp475
(lp476
F0.0
aF0.0
aF-0.827203927192698
aF0.5619018266894829
abababag0
(g16
g2
Ntp477
Rp478
(lp479
g0
(g6
g2
Ntp480
Rp481
(lp482
I24
ag0
(g23
g2
Ntp483
Rp484
(lp485
I1554799561
aI575716972
abaS'map'
p486
abag0
(g28
g2
Ntp487
Rp488
(lp489
g0
(g32
g2
Ntp490
Rp491
(lp492
F-0.7715247462497661
aF2.9043441555254508
aF0.0
abag0
(g36
g2
Ntp493
Rp494
(lp495
F0.0
aF0.0
aF-0.8177041140773276
aF0.5756387598320781
abababag0
(g16
g2
Ntp496
Rp497
(lp498
g0
(g6
g2
Ntp499
Rp500
(lp501
I25
ag0
(g23
g2
Ntp502
Rp503
(lp504
I1554799561
aI842175006
abaS'map'
p505
abag0
(g28
g2
Ntp506
Rp507
(lp508
g0
(g32
g2
Ntp509
Rp510
(lp511
F-0.7280850209713584
aF2.8008227263809937
aF0.0
abag0
(g36
g2
Ntp512
Rp513
(lp514
F0.0
aF0.0
aF-0.7993066753842855
aF0.6009233218024747
abababag0
(g16
g2
Ntp515
Rp516
(lp517
g0
(g6
g2
Ntp518
Rp519
(lp520
I26
ag0
(g23
g2
Ntp521
Rp522
(lp523
I1554799562
aI80292940
abaS'map'
p524
abag0
(g28
g2
Ntp525
Rp526
(lp527
g0
(g32
g2
Ntp528
Rp529
(lp530
F-0.691560472445282
aF2.700546591320676
aF0.0
abag0
(g36
g2
Ntp531
Rp532
(lp533
F0.0
aF0.0
aF-0.7759578131437648
aF0.6307848065871168
abababag0
(g16
g2
Ntp534
Rp535
(lp536
g0
(g6
g2
Ntp537
Rp538
(lp539
I27
ag0
(g23
g2
Ntp540
Rp541
(lp542
I1554799562
aI444945096
abaS'map'
p543
abag0
(g28
g2
Ntp544
Rp545
(lp546
g0
(g32
g2
Ntp547
Rp548
(lp549
F-0.6615195935818821
aF2.601793993561048
aF0.0
abag0
(g36
g2
Ntp550
Rp551
(lp552
F0.0
aF0.0
aF-0.7382519778097199
aF0.6745250308624854
abababag0
(g16
g2
Ntp553
Rp554
(lp555
g0
(g6
g2
Ntp556
Rp557
(lp558
I28
ag0
(g23
g2
Ntp559
Rp560
(lp561
I1554799562
aI879875898
abaS'map'
p562
abag0
(g28
g2
Ntp563
Rp564
(lp565
g0
(g32
g2
Ntp566
Rp567
(lp568
F-0.6450971644101355
aF2.4983814431063784
aF0.0
abag0
(g36
g2
Ntp569
Rp570
(lp571
F0.0
aF0.0
aF-0.7086031197008787
aF0.7056072694850742
abababag0
(g16
g2
Ntp572
Rp573
(lp574
g0
(g6
g2
Ntp575
Rp576
(lp577
I29
ag0
(g23
g2
Ntp578
Rp579
(lp580
I1554799563
aI442621946
abaS'map'
p581
abag0
(g28
g2
Ntp582
Rp583
(lp584
g0
(g32
g2
Ntp585
Rp586
(lp587
F-0.6384511417675618
aF2.397513652995403
aF0.0
abag0
(g36
g2
Ntp588
Rp589
(lp590
F0.0
aF0.0
aF-0.692530177866646
aF0.7213889053374689
abababaab.