ccopy_reg
_reconstructor
p0
(cnav_msgs.msg._Path
Path
p1
c__builtin__
object
p2
Ntp3
Rp4
(lp5
g0
(cstd_msgs.msg._Header
Header
p6
g2
Ntp7
Rp8
(lp9
I0
ag0
(crospy.rostime
Time
p10
g2
Ntp11
Rp12
(lp13
I1554799294
aI461047887
abaS'base_link'
p14
aba(lp15
g0
(cgeometry_msgs.msg._PoseStamped
PoseStamped
p16
g2
Ntp17
Rp18
(lp19
g0
(g6
g2
Ntp20
Rp21
(lp22
I0
ag0
(cgenpy.rostime
Time
p23
g2
Ntp24
Rp25
(lp26
I1554799294
aI373859882
abaS'map'
p27
abag0
(cgeometry_msgs.msg._Pose
Pose
p28
g2
Ntp29
Rp30
(lp31
g0
(cgeometry_msgs.msg._Point
Point
p32
g2
Ntp33
Rp34
(lp35
F-1.742574158678153
aF5.318237472457379
aF0.0
abag0
(cgeometry_msgs.msg._Quaternion
Quaternion
p36
g2
Ntp37
Rp38
(lp39
F0.0
aF0.0
aF-0.6997482919688823
aF0.7143894791265
abababag0
(g16
g2
Ntp40
Rp41
(lp42
g0
(g6
g2
Ntp43
Rp44
(lp45
I1
ag0
(g23
g2
Ntp46
Rp47
(lp48
I1554799306
aI807970046
abaS'map'
p49
abag0
(g28
g2
Ntp50
Rp51
(lp52
g0
(g32
g2
Ntp53
Rp54
(lp55
F-1.7912724459734646
aF5.4505767313786775
aF0.0
abag0
(g36
g2
Ntp56
Rp57
(lp58
F0.0
aF0.0
aF-0.7006421230674987
aF0.7135128698092753
abababag0
(g16
g2
Ntp59
Rp60
(lp61
g0
(g6
g2
Ntp62
Rp63
(lp64
I2
ag0
(g23
g2
Ntp65
Rp66
(lp67
I1554799308
aI407200098
abaS'map'
p68
abag0
(g28
g2
Ntp69
Rp70
(lp71
g0
(g32
g2
Ntp72
Rp73
(lp74
F-1.7357273181007111
aF5.295332239228026
aF0.0
abag0
(g36
g2
Ntp75
Rp76
(lp77
F0.0
aF0.0
aF-0.6978951869219999
aF0.7161999078966059
abababag0
(g16
g2
Ntp78
Rp79
(lp80
g0
(g6
g2
Ntp81
Rp82
(lp83
I3
ag0
(g23
g2
Ntp84
Rp85
(lp86
I1554799318
aI275166034
abaS'map'
p87
abag0
(g28
g2
Ntp88
Rp89
(lp90
g0
(g32
g2
Ntp91
Rp92
(lp93
F-1.724532575278368
aF5.189570629455325
aF0.0
abag0
(g36
g2
Ntp94
Rp95
(lp96
F0.0
aF0.0
aF-0.715260730047863
aF0.6988577022909587
abababag0
(g16
g2
Ntp97
Rp98
(lp99
g0
(g6
g2
Ntp100
Rp101
(lp102
I4
ag0
(g23
g2
Ntp103
Rp104
(lp105
I1554799318
aI607784986
abaS'map'
p106
abag0
(g28
g2
Ntp107
Rp108
(lp109
g0
(g32
g2
Ntp110
Rp111
(lp112
F-1.7308064679426343
aF5.088549275800873
aF0.0
abag0
(g36
g2
Ntp113
Rp114
(lp115
F0.0
aF0.0
aF-0.7508006413867481
aF0.6605288766535856
abababag0
(g16
g2
Ntp116
Rp117
(lp118
g0
(g6
g2
Ntp119
Rp120
(lp121
I5
ag0
(g23
g2
Ntp122
Rp123
(lp124
I1554799319
aI8285045
abaS'map'
p125
abag0
(g28
g2
Ntp126
Rp127
(lp128
g0
(g32
g2
Ntp129
Rp130
(lp131
F-1.7323470309483675
aF4.98127884175612
aF0.0
abag0
(g36
g2
Ntp132
Rp133
(lp134
F0.0
aF0.0
aF-0.8292600703094136
aF0.5588628953423427
abababag0
(g16
g2
Ntp135
Rp136
(lp137
g0
(g6
g2
Ntp138
Rp139
(lp140
I6
ag0
(g23
g2
Ntp141
Rp142
(lp143
I1554799319
aI340013027
abaS'map'
p144
abag0
(g28
g2
Ntp145
Rp146
(lp147
g0
(g32
g2
Ntp148
Rp149
(lp150
F-1.7034441228952955
aF4.875486529986532
aF0.0
abag0
(g36
g2
Ntp151
Rp152
(lp153
F0.0
aF0.0
aF-0.8952991714664935
aF0.4454653674208694
abababag0
(g16
g2
Ntp154
Rp155
(lp156
g0
(g6
g2
Ntp157
Rp158
(lp159
I7
ag0
(g23
g2
Ntp160
Rp161
(lp162
I1554799319
aI571223020
abaS'map'
p163
abag0
(g28
g2
Ntp164
Rp165
(lp166
g0
(g32
g2
Ntp167
Rp168
(lp169
F-1.6545149702156041
aF4.786178876326613
aF0.0
abag0
(g36
g2
Ntp170
Rp171
(lp172
F0.0
aF0.0
aF-0.9275122659932423
aF0.37379271853807
abababag0
(g16
g2
Ntp173
Rp174
(lp175
g0
(g6
g2
Ntp176
Rp177
(lp178
I8
ag0
(g23
g2
Ntp179
Rp180
(lp181
I1554799319
aI873946905
abaS'map'
p182
abag0
(g28
g2
Ntp183
Rp184
(lp185
g0
(g32
g2
Ntp186
Rp187
(lp188
F-1.5801675763094798
aF4.689948912803586
aF0.0
abag0
(g36
g2
Ntp189
Rp190
(lp191
F0.0
aF0.0
aF-0.9565372916377842
aF0.29161003018801057
abababag0
(g16
g2
Ntp192
Rp193
(lp194
g0
(g6
g2
Ntp195
Rp196
(lp197
I9
ag0
(g23
g2
Ntp198
Rp199
(lp200
I1554799320
aI139141082
abaS'map'
p201
abag0
(g28
g2
Ntp202
Rp203
(lp204
g0
(g32
g2
Ntp205
Rp206
(lp207
F-1.4952471304527222
aF4.631876071463606
aF0.0
abag0
(g36
g2
Ntp208
Rp209
(lp210
F0.0
aF0.0
aF-0.9711016548597209
aF0.23866624379813653
abababag0
(g16
g2
Ntp211
Rp212
(lp213
g0
(g6
g2
Ntp214
Rp215
(lp216
I10
ag0
(g23
g2
Ntp217
Rp218
(lp219
I1554799320
aI337747097
abaS'map'
p220
abag0
(g28
g2
Ntp221
Rp222
(lp223
g0
(g32
g2
Ntp224
Rp225
(lp226
F-1.4048473236398633
aF4.5868018947060545
aF0.0
abag0
(g36
g2
Ntp227
Rp228
(lp229
F0.0
aF0.0
aF-0.975839138129625
aF0.21849022059220594
abababag0
(g16
g2
Ntp230
Rp231
(lp232
g0
(g6
g2
Ntp233
Rp234
(lp235
I11
ag0
(g23
g2
Ntp236
Rp237
(lp238
I1554799320
aI569502115
abaS'map'
p239
abag0
(g28
g2
Ntp240
Rp241
(lp242
g0
(g32
g2
Ntp243
Rp244
(lp245
F-1.3130869857072498
aF4.539879566569534
aF0.0
abag0
(g36
g2
Ntp246
Rp247
(lp248
F0.0
aF0.0
aF-0.9799989971285353
aF0.19900242618386588
abababag0
(g16
g2
Ntp249
Rp250
(lp251
g0
(g6
g2
Ntp252
Rp253
(lp254
I12
ag0
(g23
g2
Ntp255
Rp256
(lp257
I1554799320
aI772947072
abaS'map'
p258
abag0
(g28
g2
Ntp259
Rp260
(lp261
g0
(g32
g2
Ntp262
Rp263
(lp264
F-1.2170881103817321
aF4.49557767696643
aF0.0
abag0
(g36
g2
Ntp265
Rp266
(lp267
F0.0
aF0.0
aF-0.9821862429826677
aF0.1879100425618392
abababag0
(g16
g2
Ntp268
Rp269
(lp270
g0
(g6
g2
Ntp271
Rp272
(lp273
I13
ag0
(g23
g2
Ntp274
Rp275
(lp276
I1554799320
aI938491106
abaS'map'
p277
abag0
(g28
g2
Ntp278
Rp279
(lp280
g0
(g32
g2
Ntp281
Rp282
(lp283
F-1.129147814450939
aF4.440264980311944
aF0.0
abag0
(g36
g2
Ntp284
Rp285
(lp286
F0.0
aF0.0
aF-0.9829143438624036
aF0.18406355595158036
abababag0
(g16
g2
Ntp287
Rp288
(lp289
g0
(g6
g2
Ntp290
Rp291
(lp292
I14
ag0
(g23
g2
Ntp293
Rp294
(lp295
I1554799321
aI139574050
abaS'map'
p296
abag0
(g28
g2
Ntp297
Rp298
(lp299
g0
(g32
g2
Ntp300
Rp301
(lp302
F-1.0306827745423248
aF4.415870746066676
aF0.0
abag0
(g36
g2
Ntp303
Rp304
(lp305
F0.0
aF0.0
aF-0.9831810756163109
aF0.18263343765574294
abababag0
(g16
g2
Ntp306
Rp307
(lp308
g0
(g6
g2
Ntp309
Rp310
(lp311
I15
ag0
(g23
g2
Ntp312
Rp313
(lp314
I1554799321
aI339139938
abaS'map'
p315
abag0
(g28
g2
Ntp316
Rp317
(lp318
g0
(g32
g2
Ntp319
Rp320
(lp321
F-0.9320879945912534
aF4.390983204222596
aF0.0
abag0
(g36
g2
Ntp322
Rp323
(lp324
F0.0
aF0.0
aF-0.9823515051988413
aF0.18704416653178693
abababag0
(g16
g2
Ntp325
Rp326
(lp327
g0
(g6
g2
Ntp328
Rp329
(lp330
I16
ag0
(g23
g2
Ntp331
Rp332
(lp333
I1554799321
aI505537033
abaS'map'
p334
abag0
(g28
g2
Ntp335
Rp336
(lp337
g0
(g32
g2
Ntp338
Rp339
(lp340
F-0.825654815973499
aF4.3377420963885465
aF0.0
abag0
(g36
g2
Ntp341
Rp342
(lp343
F0.0
aF0.0
aF-0.9803495353107398
aF0.19726831630045558
abababag0
(g16
g2
Ntp344
Rp345
(lp346
g0
(g6
g2
Ntp347
Rp348
(lp349
I17
ag0
(g23
g2
Ntp350
Rp351
(lp352
I1554799321
aI702961921
abaS'map'
p353
abag0
(g28
g2
Ntp354
Rp355
(lp356
g0
(g32
g2
Ntp357
Rp358
(lp359
F-0.7243198167811508
aF4.2986806828929005
aF0.0
abag0
(g36
g2
Ntp360
Rp361
(lp362
F0.0
aF0.0
aF-0.9762616158341763
aF0.21659468471973936
abababag0
(g16
g2
Ntp363
Rp364
(lp365
g0
(g6
g2
Ntp366
Rp367
(lp368
I18
ag0
(g23
g2
Ntp369
Rp370
(lp371
I1554799321
aI939049959
abaS'map'
p372
abag0
(g28
g2
Ntp373
Rp374
(lp375
g0
(g32
g2
Ntp376
Rp377
(lp378
F-0.6250078452606735
aF4.25096554036376
aF0.0
abag0
(g36
g2
Ntp379
Rp380
(lp381
F0.0
aF0.0
aF-0.9693691784484728
aF0.24560821621870224
abababag0
(g16
g2
Ntp382
Rp383
(lp384
g0
(g6
g2
Ntp385
Rp386
(lp387
I19
ag0
(g23
g2
Ntp388
Rp389
(lp390
I1554799322
aI137597084
abaS'map'
p391
abag0
(g28
g2
Ntp392
Rp393
(lp394
g0
(g32
g2
Ntp395
Rp396
(lp397
F-0.5253863030682512
aF4.1982567513339415
aF0.0
abag0
(g36
g2
Ntp398
Rp399
(lp400
F0.0
aF0.0
aF-0.9638310557493779
aF0.2665139695645231
abababag0
(g16
g2
Ntp401
Rp402
(lp403
g0
(g6
g2
Ntp404
Rp405
(lp406
I20
ag0
(g23
g2
Ntp407
Rp408
(lp409
I1554799322
aI303368091
abaS'map'
p410
abag0
(g28
g2
Ntp411
Rp412
(lp413
g0
(g32
g2
Ntp414
Rp415
(lp416
F-0.4263347590991395
aF4.156995108152964
aF0.0
abag0
(g36
g2
Ntp417
Rp418
(lp419
F0.0
aF0.0
aF-0.9595617673908349
aF0.2814981608497245
abababag0
(g16
g2
Ntp420
Rp421
(lp422
g0
(g6
g2
Ntp423
Rp424
(lp425
I21
ag0
(g23
g2
Ntp426
Rp427
(lp428
I1554799322
aI502320051
abaS'map'
p429
abag0
(g28
g2
Ntp430
Rp431
(lp432
g0
(g32
g2
Ntp433
Rp434
(lp435
F-0.3417423749819509
aF4.099255162560857
aF0.0
abag0
(g36
g2
Ntp436
Rp437
(lp438
F0.0
aF0.0
aF-0.9587907327036271
aF0.2841132360197988
abababag0
(g16
g2
Ntp439
Rp440
(lp441
g0
(g6
g2
Ntp442
Rp443
(lp444
I22
ag0
(g23
g2
Ntp445
Rp446
(lp447
I1554799322
aI706024885
abaS'map'
p448
abag0
(g28
g2
Ntp449
Rp450
(lp451
g0
(g32
g2
Ntp452
Rp453
(lp454
F-0.2402953206419614
aF4.04731125494701
aF0.0
abag0
(g36
g2
Ntp455
Rp456
(lp457
F0.0
aF0.0
aF-0.9591487388452881
aF0.2829022742423495
abababag0
(g16
g2
Ntp458
Rp459
(lp460
g0
(g6
g2
Ntp461
Rp462
(lp463
I23
ag0
(g23
g2
Ntp464
Rp465
(lp466
I1554799322
aI870256900
abaS'map'
p467
abag0
(g28
g2
Ntp468
Rp469
(lp470
g0
(g32
g2
Ntp471
Rp472
(lp473
F-0.15466836600375183
aF3.990477974268641
aF0.0
abag0
(g36
g2
Ntp474
Rp475
(lp476
F0.0
aF0.0
aF-0.9597056705249782
aF0.2810071635425011
abababag0
(g16
g2
Ntp477
Rp478
(lp479
g0
(g6
g2
Ntp480
Rp481
(lp482
I24
ag0
(g23
g2
Ntp483
Rp484
(lp485
I1554799323
aI69489955
abaS'map'
p486
abag0
(g28
g2
Ntp487
Rp488
(lp489
g0
(g32
g2
Ntp490
Rp491
(lp492
F-0.052539509458873555
aF3.9316639367748865
aF0.0
abag0
(g36
g2
Ntp493
Rp494
(lp495
F0.0
aF0.0
aF-0.9608169129411704
aF0.27718380148594435
abababag0
(g16
g2
Ntp496
Rp497
(lp498
g0
(g6
g2
Ntp499
Rp500
(lp501
I25
ag0
(g23
g2
Ntp502
Rp503
(lp504
I1554799323
aI208806991
abaS'map'
p505
abag0
(g28
g2
Ntp506
Rp507
(lp508
g0
(g32
g2
Ntp509
Rp510
(lp511
F0.03249171450891225
aF3.867661093957388
aF0.0
abag0
(g36
g2
Ntp512
Rp513
(lp514
F0.0
aF0.0
aF-0.9609225557261959
aF0.2768173439230928
abababag0
(g16
g2
Ntp515
Rp516
(lp517
g0
(g6
g2
Ntp518
Rp519
(lp520
I26
ag0
(g23
g2
Ntp521
Rp522
(lp523
I1554799323
aI437318086
abaS'map'
p524
abag0
(g28
g2
Ntp525
Rp526
(lp527
g0
(g32
g2
Ntp528
Rp529
(lp530
F0.1300376178362429
aF3.8145871061542933
aF0.0
abag0
(g36
g2
Ntp531
Rp532
(lp533
F0.0
aF0.0
aF-0.9551801699031663
aF0.296025071613467
abababag0
(g16
g2
Ntp534
Rp535
(lp536
g0
(g6
g2
Ntp537
Rp538
(lp539
I27
ag0
(g23
g2
Ntp540
Rp541
(lp542
I1554799324
aI368904113
abaS'map'
p543
abag0
(g28
g2
Ntp544
Rp545
(lp546
g0
(g32
g2
Ntp547
Rp548
(lp549
F0.49665700416232844
aF3.451830967657446
aF0.0
abag0
(g36
g2
Ntp550
Rp551
(lp552
F0.0
aF0.0
aF-0.8574272125631445
aF0.5146052614929197
abababag0
(g16
g2
Ntp553
Rp554
(lp555
g0
(g6
g2
Ntp556
Rp557
(lp558
I28
ag0
(g23
g2
Ntp559
Rp560
(lp561
I1554799324
aI568989992
abaS'map'
p562
abag0
(g28
g2
Ntp563
Rp564
(lp565
g0
(g32
g2
Ntp566
Rp567
(lp568
F0.5614277865867487
aF3.3607646033955145
aF0.0
abag0
(g36
g2
Ntp569
Rp570
(lp571
F0.0
aF0.0
aF-0.8319831024184796
aF0.5548009708806588
abababag0
(g16
g2
Ntp572
Rp573
(lp574
g0
(g6
g2
Ntp575
Rp576
(lp577
I29
ag0
(g23
g2
Ntp578
Rp579
(lp580
I1554799324
aI838248968
abaS'map'
p581
abag0
(g28
g2
Ntp582
Rp583
(lp584
g0
(g32
g2
Ntp585
Rp586
(lp587
F0.6095545763098401
aF3.2515146994388777
aF0.0
abag0
(g36
g2
Ntp588
Rp589
(lp590
F0.0
aF0.0
aF-0.7886652101158841
aF0.614822890231706
abababag0
(g16
g2
Ntp591
Rp592
(lp593
g0
(g6
g2
Ntp594
Rp595
(lp596
I30
ag0
(g23
g2
Ntp597
Rp598
(lp599
I1554799325
aI69729089
abaS'map'
p600
abag0
(g28
g2
Ntp601
Rp602
(lp603
g0
(g32
g2
Ntp604
Rp605
(lp606
F0.6437335219095012
aF3.1521256307366876
aF0.0
abag0
(g36
g2
Ntp607
Rp608
(lp609
F0.0
aF0.0
aF-0.7575301629383799
aF0.6528001625601448
abababag0
(g16
g2
Ntp610
Rp611
(lp612
g0
(g6
g2
Ntp613
Rp614
(lp615
I31
ag0
(g23
g2
Ntp616
Rp617
(lp618
I1554799325
aI270689964
abaS'map'
p619
abag0
(g28
g2
Ntp620
Rp621
(lp622
g0
(g32
g2
Ntp623
Rp624
(lp625
F0.6593915734321366
aF3.0440217182970986
aF0.0
abag0
(g36
g2
Ntp626
Rp627
(lp628
F0.0
aF0.0
aF-0.7337313092697376
aF0.6794397440519039
abababag0
(g16
g2
Ntp629
Rp630
(lp631
g0
(g6
g2
Ntp632
Rp633
(lp634
I32
ag0
(g23
g2
Ntp635
Rp636
(lp637
I1554799325
aI701478004
abaS'map'
p638
abag0
(g28
g2
Ntp639
Rp640
(lp641
g0
(g32
g2
Ntp642
Rp643
(lp644
F0.6722233576677011
aF2.9429144554105506
aF0.0
abag0
(g36
g2
Ntp645
Rp646
(lp647
F0.0
aF0.0
aF-0.7099813724291087
aF0.704220456109931
abababag0
(g16
g2
Ntp648
Rp649
(lp650
g0
(g6
g2
Ntp651
Rp652
(lp653
I33
ag0
(g23
g2
Ntp654
Rp655
(lp656
I1554799335
aI306976079
abaS'map'
p657
abag0
(g28
g2
Ntp658
Rp659
(lp660
g0
(g32
g2
Ntp661
Rp662
(lp663
F0.6719561549399655
aF2.8395716724647624
aF0.0
abag0
(g36
g2
Ntp664
Rp665
(lp666
F0.0
aF0.0
aF-0.7151196166836576
aF0.6990020985907114
abababag0
(g16
g2
Ntp667
Rp668
(lp669
g0
(g6
g2
Ntp670
Rp671
(lp672
I34
ag0
(g23
g2
Ntp673
Rp674
(lp675
I1554799335
aI837090969
abaS'map'
p676
abag0
(g28
g2
Ntp677
Rp678
(lp679
g0
(g32
g2
Ntp680
Rp681
(lp682
F0.6752787492609805
aF2.738224421007272
aF0.0
abag0
(g36
g2
Ntp683
Rp684
(lp685
F0.0
aF0.0
aF-0.7193871635216454
aF0.6946093211009202
abababag0
(g16
g2
Ntp686
Rp687
(lp688
g0
(g6
g2
Ntp689
Rp690
(lp691
I35
ag0
(g23
g2
Ntp692
Rp693
(lp694
I1554799336
aI237952947
abaS'map'
p695
abag0
(g28
g2
Ntp696
Rp697
(lp698
g0
(g32
g2
Ntp699
Rp700
(lp701
F0.6804488024721357
aF2.632369200565381
aF0.0
abag0
(g36
g2
Ntp702
Rp703
(lp704
F0.0
aF0.0
aF-0.7238305339051982
aF0.6899777954300528
abababag0
(g16
g2
Ntp705
Rp706
(lp707
g0
(g6
g2
Ntp708
Rp709
(lp710
I36
ag0
(g23
g2
Ntp711
Rp712
(lp713
I1554799336
aI641433000
abaS'map'
p714
abag0
(g28
g2
Ntp715
Rp716
(lp717
g0
(g32
g2
Ntp718
Rp719
(lp720
F0.6862075113029512
aF2.528905991250457
aF0.0
abag0
(g36
g2
Ntp721
Rp722
(lp723
F0.0
aF0.0
aF-0.7221626607666115
aF0.6917232766030705
abababaab.