ccopy_reg
_reconstructor
p0
(cnav_msgs.msg._Path
Path
p1
c__builtin__
object
p2
Ntp3
Rp4
(lp5
g0
(cstd_msgs.msg._Header
Header
p6
g2
Ntp7
Rp8
(lp9
I0
ag0
(crospy.rostime
Time
p10
g2
Ntp11
Rp12
(lp13
I1554796065
aI85659980
abaS'base_link'
p14
aba(lp15
g0
(cgeometry_msgs.msg._PoseStamped
PoseStamped
p16
g2
Ntp17
Rp18
(lp19
g0
(g6
g2
Ntp20
Rp21
(lp22
I0
ag0
(cgenpy.rostime
Time
p23
g2
Ntp24
Rp25
(lp26
I1554796065
aI62210083
abaS'map'
p27
abag0
(cgeometry_msgs.msg._Pose
Pose
p28
g2
Ntp29
Rp30
(lp31
g0
(cgeometry_msgs.msg._Point
Point
p32
g2
Ntp33
Rp34
(lp35
F-1.6198608317111576
aF5.3632164287420325
aF0.0
abag0
(cgeometry_msgs.msg._Quaternion
Quaternion
p36
g2
Ntp37
Rp38
(lp39
F0.0
aF0.0
aF0.6986823074439666
aF0.7154320605513668
abababag0
(g16
g2
Ntp40
Rp41
(lp42
g0
(g6
g2
Ntp43
Rp44
(lp45
I1
ag0
(g23
g2
Ntp46
Rp47
(lp48
I1554796075
aI211276054
abaS'map'
p49
abag0
(g28
g2
Ntp50
Rp51
(lp52
g0
(g32
g2
Ntp53
Rp54
(lp55
F-1.6121727062572229
aF5.2619074018128735
aF0.0
abag0
(g36
g2
Ntp56
Rp57
(lp58
F0.0
aF0.0
aF0.6906617747321402
aF0.7231779261868068
abababag0
(g16
g2
Ntp59
Rp60
(lp61
g0
(g6
g2
Ntp62
Rp63
(lp64
I2
ag0
(g23
g2
Ntp65
Rp66
(lp67
I1554796075
aI711896896
abaS'map'
p68
abag0
(g28
g2
Ntp69
Rp70
(lp71
g0
(g32
g2
Ntp72
Rp73
(lp74
F-1.6080865758711682
aF5.155080588964051
aF0.0
abag0
(g36
g2
Ntp75
Rp76
(lp77
F0.0
aF0.0
aF0.6633525671274972
aF0.7483070036324392
abababag0
(g16
g2
Ntp78
Rp79
(lp80
g0
(g6
g2
Ntp81
Rp82
(lp83
I3
ag0
(g23
g2
Ntp84
Rp85
(lp86
I1554796076
aI144140005
abaS'map'
p87
abag0
(g28
g2
Ntp88
Rp89
(lp90
g0
(g32
g2
Ntp91
Rp92
(lp93
F-1.600595077612804
aF5.052064132089785
aF0.0
abag0
(g36
g2
Ntp94
Rp95
(lp96
F0.0
aF0.0
aF0.6398154666171897
aF0.7685285737546964
abababag0
(g16
g2
Ntp97
Rp98
(lp99
g0
(g6
g2
Ntp100
Rp101
(lp102
I4
ag0
(g23
g2
Ntp103
Rp104
(lp105
I1554796076
aI445476055
abaS'map'
p106
abag0
(g28
g2
Ntp107
Rp108
(lp109
g0
(g32
g2
Ntp110
Rp111
(lp112
F-1.5831178319537371
aF4.952903126468883
aF0.0
abag0
(g36
g2
Ntp113
Rp114
(lp115
F0.0
aF0.0
aF0.6043985468705693
aF0.7966821176232992
abababag0
(g16
g2
Ntp116
Rp117
(lp118
g0
(g6
g2
Ntp119
Rp120
(lp121
I5
ag0
(g23
g2
Ntp122
Rp123
(lp124
I1554796076
aI780133008
abaS'map'
p125
abag0
(g28
g2
Ntp126
Rp127
(lp128
g0
(g32
g2
Ntp129
Rp130
(lp131
F-1.560098725597809
aF4.846244487374246
aF0.0
abag0
(g36
g2
Ntp132
Rp133
(lp134
F0.0
aF0.0
aF0.5701131275550515
aF0.8215662004911093
abababag0
(g16
g2
Ntp135
Rp136
(lp137
g0
(g6
g2
Ntp138
Rp139
(lp140
I6
ag0
(g23
g2
Ntp141
Rp142
(lp143
I1554796077
aI113519906
abaS'map'
p144
abag0
(g28
g2
Ntp145
Rp146
(lp147
g0
(g32
g2
Ntp148
Rp149
(lp150
F-1.5223084287168211
aF4.743204967541691
aF0.0
abag0
(g36
g2
Ntp151
Rp152
(lp153
F0.0
aF0.0
aF0.5342011869059322
aF0.8453573752610746
abababag0
(g16
g2
Ntp154
Rp155
(lp156
g0
(g6
g2
Ntp157
Rp158
(lp159
I7
ag0
(g23
g2
Ntp160
Rp161
(lp162
I1554796077
aI445483922
abaS'map'
p163
abag0
(g28
g2
Ntp164
Rp165
(lp166
g0
(g32
g2
Ntp167
Rp168
(lp169
F-1.4782805888556296
aF4.645720393689543
aF0.0
abag0
(g36
g2
Ntp170
Rp171
(lp172
F0.0
aF0.0
aF0.5047399543045896
aF0.8632714396576553
abababag0
(g16
g2
Ntp173
Rp174
(lp175
g0
(g6
g2
Ntp176
Rp177
(lp178
I8
ag0
(g23
g2
Ntp179
Rp180
(lp181
I1554796077
aI645068883
abaS'map'
p182
abag0
(g28
g2
Ntp183
Rp184
(lp185
g0
(g32
g2
Ntp186
Rp187
(lp188
F-1.4310700218223449
aF4.549532621612291
aF0.0
abag0
(g36
g2
Ntp189
Rp190
(lp191
F0.0
aF0.0
aF0.48618872430417326
aF0.8738538346654322
abababag0
(g16
g2
Ntp192
Rp193
(lp194
g0
(g6
g2
Ntp195
Rp196
(lp197
I9
ag0
(g23
g2
Ntp198
Rp199
(lp200
I1554796077
aI915220022
abaS'map'
p201
abag0
(g28
g2
Ntp202
Rp203
(lp204
g0
(g32
g2
Ntp205
Rp206
(lp207
F-1.3774938777870276
aF4.458576118352465
aF0.0
abag0
(g36
g2
Ntp208
Rp209
(lp210
F0.0
aF0.0
aF0.4566417911713511
aF0.889650647476761
abababag0
(g16
g2
Ntp211
Rp212
(lp213
g0
(g6
g2
Ntp214
Rp215
(lp216
I10
ag0
(g23
g2
Ntp217
Rp218
(lp219
I1554796078
aI179361104
abaS'map'
p220
abag0
(g28
g2
Ntp221
Rp222
(lp223
g0
(g32
g2
Ntp224
Rp225
(lp226
F-1.3169907312973654
aF4.37675468807176
aF0.0
abag0
(g36
g2
Ntp227
Rp228
(lp229
F0.0
aF0.0
aF0.4247583962587481
aF0.9053067462510684
abababag0
(g16
g2
Ntp230
Rp231
(lp232
g0
(g6
g2
Ntp233
Rp234
(lp235
I11
ag0
(g23
g2
Ntp236
Rp237
(lp238
I1554796078
aI415138959
abaS'map'
p239
abag0
(g28
g2
Ntp240
Rp241
(lp242
g0
(g32
g2
Ntp243
Rp244
(lp245
F-1.24831415814801
aF4.279878960544064
aF0.0
abag0
(g36
g2
Ntp246
Rp247
(lp248
F0.0
aF0.0
aF0.40859446009318984
aF0.9127160386347742
abababag0
(g16
g2
Ntp249
Rp250
(lp251
g0
(g6
g2
Ntp252
Rp253
(lp254
I12
ag0
(g23
g2
Ntp255
Rp256
(lp257
I1554796078
aI618226051
abaS'map'
p258
abag0
(g28
g2
Ntp259
Rp260
(lp261
g0
(g32
g2
Ntp262
Rp263
(lp264
F-1.1851183715642382
aF4.199997286263327
aF0.0
abag0
(g36
g2
Ntp265
Rp266
(lp267
F0.0
aF0.0
aF0.405913197297404
aF0.9139116348202373
abababag0
(g16
g2
Ntp268
Rp269
(lp270
g0
(g6
g2
Ntp271
Rp272
(lp273
I13
ag0
(g23
g2
Ntp274
Rp275
(lp276
I1554796078
aI878869056
abaS'map'
p277
abag0
(g28
g2
Ntp278
Rp279
(lp280
g0
(g32
g2
Ntp281
Rp282
(lp283
F-1.1044482224316625
aF4.114369187668322
aF0.0
abag0
(g36
g2
Ntp284
Rp285
(lp286
F0.0
aF0.0
aF0.41271686959902376
aF0.9108593665041724
abababag0
(g16
g2
Ntp287
Rp288
(lp289
g0
(g6
g2
Ntp290
Rp291
(lp292
I14
ag0
(g23
g2
Ntp293
Rp294
(lp295
I1554796079
aI114075899
abaS'map'
p296
abag0
(g28
g2
Ntp297
Rp298
(lp299
g0
(g32
g2
Ntp300
Rp301
(lp302
F-1.0302318856126005
aF4.03561916395444
aF0.0
abag0
(g36
g2
Ntp303
Rp304
(lp305
F0.0
aF0.0
aF0.4286168743391351
aF0.9034863446847163
abababag0
(g16
g2
Ntp306
Rp307
(lp308
g0
(g6
g2
Ntp309
Rp310
(lp311
I15
ag0
(g23
g2
Ntp312
Rp313
(lp314
I1554796079
aI373044013
abaS'map'
p315
abag0
(g28
g2
Ntp316
Rp317
(lp318
g0
(g32
g2
Ntp319
Rp320
(lp321
F-0.9480172805400202
aF3.945313793388259
aF0.0
abag0
(g36
g2
Ntp322
Rp323
(lp324
F0.0
aF0.0
aF0.4628165798205979
aF0.8864540673058949
abababag0
(g16
g2
Ntp325
Rp326
(lp327
g0
(g6
g2
Ntp328
Rp329
(lp330
I16
ag0
(g23
g2
Ntp331
Rp332
(lp333
I1554796079
aI570370912
abaS'map'
p334
abag0
(g28
g2
Ntp335
Rp336
(lp337
g0
(g32
g2
Ntp338
Rp339
(lp340
F-0.8848242835154053
aF3.859347813158374
aF0.0
abag0
(g36
g2
Ntp341
Rp342
(lp343
F0.0
aF0.0
aF0.486431925126276
aF0.8737184799567564
abababag0
(g16
g2
Ntp344
Rp345
(lp346
g0
(g6
g2
Ntp347
Rp348
(lp349
I17
ag0
(g23
g2
Ntp350
Rp351
(lp352
I1554796079
aI767210960
abaS'map'
p353
abag0
(g28
g2
Ntp354
Rp355
(lp356
g0
(g32
g2
Ntp357
Rp358
(lp359
F-0.8210622815066739
aF3.7593482504213114
aF0.0
abag0
(g36
g2
Ntp360
Rp361
(lp362
F0.0
aF0.0
aF0.5144787384963796
aF0.8575031356415986
abababag0
(g16
g2
Ntp363
Rp364
(lp365
g0
(g6
g2
Ntp366
Rp367
(lp368
I18
ag0
(g23
g2
Ntp369
Rp370
(lp371
I1554796079
aI964956998
abaS'map'
p372
abag0
(g28
g2
Ntp373
Rp374
(lp375
g0
(g32
g2
Ntp376
Rp377
(lp378
F-0.768707190315026
aF3.673344714479016
aF0.0
abag0
(g36
g2
Ntp379
Rp380
(lp381
F0.0
aF0.0
aF0.5461876784780725
aF0.8376628318594145
abababag0
(g16
g2
Ntp382
Rp383
(lp384
g0
(g6
g2
Ntp385
Rp386
(lp387
I19
ag0
(g23
g2
Ntp388
Rp389
(lp390
I1554796080
aI158945083
abaS'map'
p391
abag0
(g28
g2
Ntp392
Rp393
(lp394
g0
(g32
g2
Ntp395
Rp396
(lp397
F-0.7219883435721559
aF3.5783382003529387
aF0.0
abag0
(g36
g2
Ntp398
Rp399
(lp400
F0.0
aF0.0
aF0.5803504339965493
aF0.8143668545317994
abababag0
(g16
g2
Ntp401
Rp402
(lp403
g0
(g6
g2
Ntp404
Rp405
(lp406
I20
ag0
(g23
g2
Ntp407
Rp408
(lp409
I1554796080
aI359666109
abaS'map'
p410
abag0
(g28
g2
Ntp411
Rp412
(lp413
g0
(g32
g2
Ntp414
Rp415
(lp416
F-0.681313713145079
aF3.4762676912558867
aF0.0
abag0
(g36
g2
Ntp417
Rp418
(lp419
F0.0
aF0.0
aF0.608870515350711
aF0.7932696234802891
abababag0
(g16
g2
Ntp420
Rp421
(lp422
g0
(g6
g2
Ntp423
Rp424
(lp425
I21
ag0
(g23
g2
Ntp426
Rp427
(lp428
I1554796080
aI590549945
abaS'map'
p429
abag0
(g28
g2
Ntp430
Rp431
(lp432
g0
(g32
g2
Ntp433
Rp434
(lp435
F-0.6466823987866114
aF3.3652207535220895
aF0.0
abag0
(g36
g2
Ntp436
Rp437
(lp438
F0.0
aF0.0
aF0.631866138495009
aF0.7750775335560991
abababag0
(g16
g2
Ntp439
Rp440
(lp441
g0
(g6
g2
Ntp442
Rp443
(lp444
I22
ag0
(g23
g2
Ntp445
Rp446
(lp447
I1554796080
aI818084955
abaS'map'
p448
abag0
(g28
g2
Ntp449
Rp450
(lp451
g0
(g32
g2
Ntp452
Rp453
(lp454
F-0.6205484756697639
aF3.260603669709153
aF0.0
abag0
(g36
g2
Ntp455
Rp456
(lp457
F0.0
aF0.0
aF0.6508008168113958
aF0.7592485079587711
abababag0
(g16
g2
Ntp458
Rp459
(lp460
g0
(g6
g2
Ntp461
Rp462
(lp463
I23
ag0
(g23
g2
Ntp464
Rp465
(lp466
I1554796081
aI47990083
abaS'map'
p467
abag0
(g28
g2
Ntp468
Rp469
(lp470
g0
(g32
g2
Ntp471
Rp472
(lp473
F-0.5998575698503795
aF3.162756413206434
aF0.0
abag0
(g36
g2
Ntp474
Rp475
(lp476
F0.0
aF0.0
aF0.6625597523803225
aF0.7490090617113558
abababag0
(g16
g2
Ntp477
Rp478
(lp479
g0
(g6
g2
Ntp480
Rp481
(lp482
I24
ag0
(g23
g2
Ntp483
Rp484
(lp485
I1554796081
aI311759948
abaS'map'
p486
abag0
(g28
g2
Ntp487
Rp488
(lp489
g0
(g32
g2
Ntp490
Rp491
(lp492
F-0.5826346274600411
aF3.059865197102462
aF0.0
abag0
(g36
g2
Ntp493
Rp494
(lp495
F0.0
aF0.0
aF0.677083407992585
aF0.7359062838576299
abababag0
(g16
g2
Ntp496
Rp497
(lp498
g0
(g6
g2
Ntp499
Rp500
(lp501
I25
ag0
(g23
g2
Ntp502
Rp503
(lp504
I1554796081
aI576314926
abaS'map'
p505
abag0
(g28
g2
Ntp506
Rp507
(lp508
g0
(g32
g2
Ntp509
Rp510
(lp511
F-0.5698325904515097
aF2.9576770038405504
aF0.0
abag0
(g36
g2
Ntp512
Rp513
(lp514
F0.0
aF0.0
aF0.6925213956328831
aF0.7213973361405515
abababag0
(g16
g2
Ntp515
Rp516
(lp517
g0
(g6
g2
Ntp518
Rp519
(lp520
I26
ag0
(g23
g2
Ntp521
Rp522
(lp523
I1554796081
aI872584104
abaS'map'
p524
abag0
(g28
g2
Ntp525
Rp526
(lp527
g0
(g32
g2
Ntp528
Rp529
(lp530
F-0.5601571311704354
aF2.854439463157652
aF0.0
abag0
(g36
g2
Ntp531
Rp532
(lp533
F0.0
aF0.0
aF0.7149183736192114
aF0.699207922625067
abababag0
(g16
g2
Ntp534
Rp535
(lp536
g0
(g6
g2
Ntp537
Rp538
(lp539
I27
ag0
(g23
g2
Ntp540
Rp541
(lp542
I1554796082
aI168390035
abaS'map'
p543
abag0
(g28
g2
Ntp544
Rp545
(lp546
g0
(g32
g2
Ntp547
Rp548
(lp549
F-0.55938622780973
aF2.752916256201254
aF0.0
abag0
(g36
g2
Ntp550
Rp551
(lp552
F0.0
aF0.0
aF0.7303455020696865
aF0.6830779220605637
abababag0
(g16
g2
Ntp553
Rp554
(lp555
g0
(g6
g2
Ntp556
Rp557
(lp558
I28
ag0
(g23
g2
Ntp559
Rp560
(lp561
I1554796082
aI466012954
abaS'map'
p562
abag0
(g28
g2
Ntp563
Rp564
(lp565
g0
(g32
g2
Ntp566
Rp567
(lp568
F-0.565607912596426
aF2.6494299999524884
aF0.0
abag0
(g36
g2
Ntp569
Rp570
(lp571
F0.0
aF0.0
aF0.725038506589785
aF0.6887083301093826
abababag0
(g16
g2
Ntp572
Rp573
(lp574
g0
(g6
g2
Ntp575
Rp576
(lp577
I29
ag0
(g23
g2
Ntp578
Rp579
(lp580
I1554796082
aI762274026
abaS'map'
p581
abag0
(g28
g2
Ntp582
Rp583
(lp584
g0
(g32
g2
Ntp585
Rp586
(lp587
F-0.5712397902953622
aF2.5474004270371062
aF0.0
abag0
(g36
g2
Ntp588
Rp589
(lp590
F0.0
aF0.0
aF0.7065501343539384
aF0.7076629901615822
abababag0
(g16
g2
Ntp591
Rp592
(lp593
g0
(g6
g2
Ntp594
Rp595
(lp596
I30
ag0
(g23
g2
Ntp597
Rp598
(lp599
I1554796083
aI122421026
abaS'map'
p600
abag0
(g28
g2
Ntp601
Rp602
(lp603
g0
(g32
g2
Ntp604
Rp605
(lp606
F-0.5689768340099106
aF2.446597499045892
aF0.0
abag0
(g36
g2
Ntp607
Rp608
(lp609
F0.0
aF0.0
aF0.7001454477399397
aF0.714000246504887
abababag0
(g16
g2
Ntp610
Rp611
(lp612
g0
(g6
g2
Ntp613
Rp614
(lp615
I31
ag0
(g23
g2
Ntp616
Rp617
(lp618
I1554796083
aI586456060
abaS'map'
p619
abag0
(g28
g2
Ntp620
Rp621
(lp622
g0
(g32
g2
Ntp623
Rp624
(lp625
F-0.5640883983499478
aF2.3410185091893307
aF0.0
abag0
(g36
g2
Ntp626
Rp627
(lp628
F0.0
aF0.0
aF0.7021567850237549
aF0.7120223656916295
abababaab.